ccopy_reg
_reconstructor
p0
(cnltk.classify.naivebayes
NaiveBayesClassifier
p1
c__builtin__
object
p2
Ntp3
Rp4
(dp5
S'_labels'
p6
(lp7
S'South Indian'
p8
aS'West Indian'
p9
aS'North Indian'
p10
aS'East Indian'
p11
aVPunjabi
p12
asS'_feature_probdist'
p13
(dp14
(g12
S'name_last'
p15
tp16
g0
(cnltk.probability
ELEProbDist
p17
g2
Ntp18
Rp19
(dp20
S'_gamma'
p21
F0.5
sS'_N'
p22
I1496
sS'_freqdist'
p23
cnltk.probability
FreqDist
p24
((dp25
Va
p26
I178
sVb
p27
I1
sVe
p28
I13
sVd
p29
I12
sVi
p30
I125
sVh
p31
I79
sVk
p32
I32
sVj
p33
I21
sVm
p34
I19
sVl
p35
I104
sNI176
sVn
p36
I119
sVp
p37
I96
sVs
p38
I6
sVr
p39
I151
sVu
p40
I22
sVt
p41
I290
sVv
p42
I23
sVy
p43
I29
stp44
Rp45
sS'_bins'
p46
I25
sS'_divisor'
p47
F1508.5
sbs(g12
S'name_first'
p48
tp49
g0
(g17
g2
Ntp50
Rp51
(dp52
g21
F0.5
sg22
I1496
sg23
g24
((dp53
g26
I187
sVc
p54
I20
sg27
I34
sg28
I5
sg29
I79
sVg
p55
I85
sg30
I15
sg31
I69
sg32
I88
sg33
I91
sg34
I123
sg35
I18
sVo
p56
I2
sg36
I85
sg37
I115
sg38
I233
sg39
I151
sg40
I6
sg41
I27
sg42
I55
sg43
I8
stp57
Rp58
sg46
I26
sg47
F1509.0
sbs(g11
S'name_first_four'
p59
tp60
g0
(g17
g2
Ntp61
Rp62
(dp63
g21
F0.5
sg22
I1461
sg23
g24
((dp64
Vraji
p65
I5
sVrajk
p66
I4
sVbais
p67
I1
sVsnig
p68
I4
sVraja
p69
I2
sVpros
p70
I7
sVraje
p71
I5
sVrajd
p72
I1
sVmily
p73
I2
sVpriy
p74
I26
sVdipa
p75
I6
sVliza
p76
I2
sVsuni
p77
I2
sVsunn
p78
I1
sVrupa
p79
I4
sVshoh
p80
I3
sVraju
p81
I4
sVprit
p82
I2
sVmili
p83
I2
sVarij
p84
I4
sVswag
p85
I3
sVarin
p86
I6
sVtapt
p87
I2
sVriju
p88
I2
sVakas
p89
I3
sVavas
p90
I2
sVjoyd
p91
I2
sVtapa
p92
I5
sVswat
p93
I2
sVbipa
p94
I4
sVupas
p95
I2
sVtush
p96
I1
sVswap
p97
I2
sVabra
p98
I1
sVamla
p99
I3
sVkoye
p100
I2
sVsuun
p101
I1
sVbikk
p102
I1
sVarit
p103
I2
sVbipl
p104
I4
sVsona
p105
I8
sVnoor
p106
I5
sVrish
p107
I4
sVsoni
p108
I1
sVkako
p109
I1
sVhema
p110
I2
sVtanm
p111
I3
sVmoum
p112
I10
sVmous
p113
I9
sVjoyb
p114
I1
sVmeen
p115
I2
sVsama
p116
I1
sVsaur
p117
I3
sVsant
p118
I6
sVsanu
p119
I1
sVtani
p120
I5
sVsaut
p121
I1
sVmaha
p122
I2
sVshob
p123
I4
sVmahe
p124
I2
sVruna
p125
I1
sVsang
p126
I2
sVsand
p127
I8
sVsanc
p128
I9
sVsana
p129
I4
sVanan
p130
I8
sVbaid
p131
I2
sVanam
p132
I4
sVsanj
p133
I8
sVsank
p134
I3
sVsaum
p135
I2
sVgout
p136
I3
sVgour
p137
I3
sVsaya
p138
I9
sVratn
p139
I3
sVpous
p140
I4
sVdebo
p141
I8
sVbarn
p142
I2
sVkrit
p143
I2
sVcasu
p144
I1
sVarot
p145
I1
sVsaib
p146
I1
sVrupi
p147
I2
sVkris
p148
I3
sVritw
p149
I2
sVritu
p150
I4
sVsaik
p151
I5
sVyasm
p152
I2
sVpiju
p153
I1
sVisha
p154
I1
sVriti
p155
I1
sVsapt
p156
I2
sVmono
p157
I2
sVasis
p158
I2
sVishi
p159
I3
sVrita
p160
I1
sVsrad
p161
I1
sVbibh
p162
I2
sVkama
p163
I8
sVatre
p164
I2
sVhasi
p165
I2
sVsrab
p166
I1
sVhase
p167
I1
sVdhru
p168
I5
sVsuga
p169
I1
sVzahi
p170
I2
sVdeba
p171
I19
sVrima
p172
I4
sVjati
p173
I1
sVchha
p174
I2
sVdebu
p175
I2
sVdebr
p176
I1
sVnili
p177
I2
sVzees
p178
I3
sVnilo
p179
I4
sVmona
p180
I10
sValok
p181
I1
sVnila
p182
I3
sVvenu
p183
I1
sVmoni
p184
I10
sVmana
p185
I2
sVbhum
p186
I1
sVhimi
p187
I2
sVeaps
p188
I1
sVrekh
p189
I2
sVjini
p190
I1
sVnilu
p191
I2
sVmano
p192
I3
sVgola
p193
I3
sVshik
p194
I1
sVmrin
p195
I1
sVjaya
p196
I2
sVjaye
p197
I2
sVdhan
p198
I3
sVwalt
p199
I1
sVanti
p200
I1
sVpola
p201
I2
sVayan
p202
I2
sVanta
p203
I2
sVprem
p204
I1
sVlate
p205
I4
sVsari
p206
I2
sVrafi
p207
I2
sVshil
p208
I4
sVkesh
p209
I1
sVpree
p210
I4
sVruma
p211
I1
sVsneh
p212
I3
sVmaru
p213
I1
sVrump
p214
I2
sVapar
p215
I2
sVavis
p216
I3
sVrubl
p217
I1
sVbika
p218
I2
sVrubi
p219
I5
sVbabl
p220
I1
sVnirm
p221
I2
sVtuhi
p222
I8
sVvand
p223
I3
sVshan
p224
I4
sVnibe
p225
I2
sVaysh
p226
I1
sVajoy
p227
I1
sVmoye
p228
I1
sVsaby
p229
I1
sVsoug
p230
I3
sVmalv
p231
I2
sVsoum
p232
I27
sVsoun
p233
I1
sVpoul
p234
I3
sVsobu
p235
I6
sVsour
p236
I12
sVsabn
p237
I3
sVsouv
p238
I6
sVsabb
p239
I2
sVujja
p240
I3
sVsaba
p241
I5
sVsusa
p242
I2
sVsude
p243
I4
sVsuda
p244
I1
sVsush
p245
I10
sVmehe
p246
I1
sVsudh
p247
I1
sVsudi
p248
I8
sVhurv
p249
I2
sVchin
p250
I2
sVmegh
p251
I2
sVpink
p252
I2
sVshas
p253
I2
sVsami
p254
I4
sVabba
p255
I2
sVoind
p256
I2
sVbhol
p257
I2
sVsaty
p258
I8
sVpina
p259
I2
sVshay
p260
I4
sVsusm
p261
I3
sVshab
p262
I1
sVsata
p263
I4
sVmand
p264
I2
sVasmi
p265
I2
sVshai
p266
I2
sVtila
p267
I2
sVsamu
p268
I2
sVchou
p269
I1
sVshar
p270
I7
sVagni
p271
I2
sVadit
p272
I2
sVsreo
p273
I1
sVayon
p274
I1
sVnaba
p275
I6
sVfarh
p276
I1
sVfaru
p277
I4
sVrudr
p278
I2
sVmani
p279
I11
sVsumo
p280
I1
sVsuch
p281
I3
sVkeya
p282
I2
sVatas
p283
I3
sVarch
p284
I2
sVmanj
p285
I1
sVsujo
p286
I3
sVtasl
p287
I1
sVtasm
p288
I2
sVdevd
p289
I2
sVvikr
p290
I1
sVriya
p291
I3
sVuttp
p292
I2
sVapur
p293
I1
sVdevl
p294
I1
sVnajm
p295
I1
sVashr
p296
I3
sVsamb
p297
I4
sVamit
p298
I23
sValph
p299
I4
sVjaid
p300
I4
sVnikh
p301
I1
sVvaru
p302
I1
sVkoni
p303
I1
sVsumi
p304
I7
sVresh
p305
I2
sVsame
p306
I2
sVsubr
p307
I3
sVrame
p308
I2
sVafro
p309
I2
sVprap
p310
I2
sVpras
p311
I2
sVprat
p312
I2
sVpurb
p313
I2
sVtuli
p314
I1
sVrose
p315
I2
sVavij
p316
I5
sVavik
p317
I1
sVkhus
p318
I1
sVtoru
p319
I2
sVprab
p320
I5
sVnira
p321
I4
sVprad
p322
I2
sVrabi
p323
I1
sVnata
p324
I2
sVmain
p325
I2
sVpran
p326
I5
sVanin
p327
I4
sVanim
p328
I2
sVmaya
p329
I2
sVanik
p330
I1
sVrakh
p331
I1
sVrake
p332
I1
sVshwe
p333
I2
sVarab
p334
I2
sVbang
p335
I2
sVkash
p336
I2
sVkiss
p337
I1
sVzulk
p338
I2
sVsova
p339
I3
sVsume
p340
I2
sVanir
p341
I8
sVshah
p342
I2
sVsuma
p343
I8
sVarpi
p344
I13
sVsofi
p345
I1
sValey
p346
I2
sVnami
p347
I1
sVbiha
p348
I1
sVoliv
p349
I2
sVluna
p350
I2
sNI69
sVboni
p351
I2
sVsuta
p352
I2
sVravi
p353
I1
sValka
p354
I2
sVsidd
p355
I2
sVtanu
p356
I6
sVbhas
p357
I2
sVkani
p358
I2
sVsoma
p359
I1
sVshel
p360
I2
sVsome
p361
I1
sVsheh
p362
I2
sVgaur
p363
I5
sVmohd
p364
I1
sVpall
p365
I4
sVnupu
p366
I3
sVkany
p367
I2
sVmayu
p368
I2
sVabdu
p369
I4
sVsoms
p370
I1
sVpaya
p371
I3
sVrohi
p372
I2
sVreem
p373
I2
sVnuru
p374
I3
sVabhi
p375
I12
sVpron
p376
I1
sVruch
p377
I2
sVprol
p378
I1
sVnirj
p379
I4
sVanni
p380
I1
sVanki
p381
I7
sVbubl
p382
I1
sVsaad
p383
I1
sVroqu
p384
I1
sVshuv
p385
I2
sVshup
p386
I4
sVkaus
p387
I1
sVpapa
p388
I1
sVmitu
p389
I1
sVsree
p390
I1
sVargh
p391
I4
sVanwe
p392
I2
sVajay
p393
I2
sVshub
p394
I2
sVsrij
p395
I3
sVsahe
p396
I2
sVasho
p397
I4
sVshiu
p398
I2
sVashi
p399
I5
sVkunt
p400
I1
sVsrey
p401
I1
sVbisw
p402
I10
sVmarc
p403
I2
sVdiya
p404
I2
sVsahi
p405
I3
sVbija
p406
I4
sVsuva
p407
I3
sVimra
p408
I2
sVbish
p409
I5
sVsuve
p410
I4
sVdiby
p411
I3
sVbijo
p412
I1
sVbisa
p413
I3
sVshre
p414
I4
sVrana
p415
I3
sVgarg
p416
I2
sVkous
p417
I2
sVtedd
p418
I2
sVshri
p419
I4
sVranj
p420
I2
sVranu
p421
I1
sVshru
p422
I1
sVsube
p423
I2
sVsubb
p424
I1
sVrink
p425
I1
sVsuba
p426
I3
sVmist
p427
I1
sVmiss
p428
I4
sVsubh
p429
I22
sVpaye
p430
I4
sVroni
p431
I2
sVtare
p432
I3
sVmamp
p433
I1
sVchan
p434
I10
sVtama
p435
I1
sVmamu
p436
I2
sVmamt
p437
I1
sVjanm
p438
I1
sVoish
p439
I2
sVjanh
p440
I2
sVmamo
p441
I1
sVbudd
p442
I2
sVdipt
p443
I4
sVaron
p444
I2
sVanus
p445
I4
sVanup
p446
I6
sVpara
p447
I4
sVjite
p448
I2
sVparo
p449
I2
sVreey
p450
I1
sValak
p451
I2
sValam
p452
I3
sVpari
p453
I2
sVesha
p454
I2
sVpart
p455
I12
sVanuj
p456
I2
sVejaj
p457
I2
sVanun
p458
I1
sVlaks
p459
I2
sVdebi
p460
I1
sVrush
p461
I2
sVvive
p462
I2
sVarup
p463
I6
sViqub
p464
I1
sVsupr
p465
I5
sVsmri
p466
I2
sVmadh
p467
I7
sVamza
p468
I1
sVarna
p469
I8
sVbhis
p470
I2
sVarun
p471
I2
sVsupa
p472
I2
sVbide
p473
I1
sVaney
p474
I2
sVmoha
p475
I3
sVmini
p476
I2
sVanja
p477
I3
sVdili
p478
I2
sVrata
p479
I4
sVkart
p480
I1
sVshim
p481
I2
sVshib
p482
I2
sVchai
p483
I2
sVdebj
p484
I6
sVdeep
p485
I8
sVneel
p486
I2
sVrahu
p487
I8
sVtaba
p488
I1
sVsuja
p489
I6
sVshiv
p490
I7
sVpupu
p491
I1
sVarko
p492
I1
sVsuka
p493
I2
sVarka
p494
I2
sVkaya
p495
I2
sVbive
p496
I2
sVbiva
p497
I2
sVjahn
p498
I2
sVkira
p499
I3
sVtaru
p500
I1
sVjaga
p501
I1
sVpapi
p502
I4
sVsura
p503
I5
sVaman
p504
I1
sVsurj
p505
I2
sVnaya
p506
I2
sVmosu
p507
I2
sVkhok
p508
I2
sVquas
p509
I2
sVamar
p510
I4
sVvish
p511
I2
sVshya
p512
I2
sVpoon
p513
I2
sVsury
p514
I4
sVnasr
p515
I2
sVbads
p516
I1
sVsalm
p517
I5
sVindr
p518
I11
sVpuja
p519
I3
sVsekh
p520
I1
sVpiya
p521
I3
sVpush
p522
I2
sVbabu
p523
I1
sVsalu
p524
I2
stp525
Rp526
sg46
I2323
sg47
F2622.5
sbs(g9
S'name_first_three'
p527
tp528
g0
(g17
g2
Ntp529
Rp530
(dp531
g21
F0.5
sg22
I3097
sg23
g24
((dp532
Vroh
p533
I39
sVkhy
p534
I1
sVnee
p535
I8
sVrom
p536
I3
sVron
p537
I2
sVali
p538
I2
sVkus
p539
I1
sVros
p540
I9
sValp
p541
I8
sVjaz
p542
I2
sVrek
p543
I2
sVjav
p544
I1
sVjat
p545
I2
sVjas
p546
I3
sVjan
p547
I6
sVved
p548
I1
sVjam
p549
I2
sVhri
p550
I2
sVvea
p551
I1
sVjag
p552
I4
sVjad
p553
I3
sVjac
p554
I1
sVhir
p555
I14
sVfay
p556
I2
sVhit
p557
I17
sVyax
p558
I1
sVmub
p559
I1
sVlok
p560
I2
sVfat
p561
I3
sVble
p562
I1
sVgee
p563
I1
sVhim
p564
I4
sVhin
p565
I6
sVtri
p566
I1
sVdim
p567
I2
sVdin
p568
I11
sVmun
p569
I3
sVjhe
p570
I2
sVshu
p571
I5
sVdik
p572
I5
sVshy
p573
I1
sVdig
p574
I1
sVupa
p575
I2
sVgur
p576
I1
sVdpe
p577
I1
sVdix
p578
I3
sVshe
p579
I11
sVban
p580
I1
sVshi
p581
I25
sVdiv
p582
I6
sVgor
p583
I1
sVdip
p584
I16
sVdis
p585
I10
sVarp
p586
I2
sVtej
p587
I14
sVses
p588
I2
sVara
p589
I1
sVsee
p590
I6
sVarc
p591
I14
sVsad
p592
I4
sVsej
p593
I3
sVarn
p594
I1
sVabb
p595
I1
sVabc
p596
I5
sVsuc
p597
I2
sVsub
p598
I5
sVneh
p599
I17
sVmur
p600
I3
sVabh
p601
I24
sVsun
p602
I16
sVsum
p603
I6
sVsul
p604
I2
sVsuk
p605
I1
sVsuj
p606
I6
sVsuh
p607
I2
sVsuv
p608
I1
sVmug
p609
I2
sVkul
p610
I2
sVsus
p611
I3
sVsur
p612
I10
sVpin
p613
I5
sVsup
p614
I13
sVluk
p615
I1
sVsuy
p616
I2
sVmee
p617
I3
sVmed
p618
I1
sVmeg
p619
I9
sVjos
p620
I1
sVkek
p621
I2
sVlee
p622
I2
sVvru
p623
I9
sVomk
p624
I2
sVtur
p625
I2
sVked
p626
I1
sVmeh
p627
I20
sVoms
p628
I2
sVvra
p629
I2
sVkey
p630
I5
sVvri
p631
I1
sVket
p632
I2
sVkes
p633
I2
sVaks
p634
I15
sVjay
p635
I31
sVakk
p636
I2
sVakh
p637
I5
sVana
p638
I10
sVaka
p639
I2
sVekt
p640
I4
sVkru
p641
I20
sVvic
p642
I2
sVvid
p643
I10
sVane
p644
I3
sVvij
p645
I13
sVvik
p646
I18
sVvih
p647
I1
sVvin
p648
I16
sVrad
p649
I10
sVapu
p650
I3
sVvir
p651
I4
sVvis
p652
I21
sVvip
p653
I3
sVang
p654
I2
sVviv
p655
I8
sVbri
p656
I3
sVriz
p657
I1
sVapa
p658
I8
sVrup
p659
I25
sVape
p660
I1
sVcha
p661
I22
sVdul
p662
I1
sVche
p663
I20
sVswa
p664
I27
sVchi
p665
I20
sVswe
p666
I4
sVjal
p667
I1
sVyas
p668
I6
sVcho
p669
I1
sVran
p670
I5
sVpur
p671
I5
sVpia
p672
I2
sVyag
p673
I3
sVdus
p674
I2
sVdny
p675
I6
sVays
p676
I1
sVaje
p677
I3
sVano
p678
I2
sVsag
p679
I28
sVgau
p680
I13
sVjai
p681
I4
sVani
p682
I18
sVgan
p683
I17
sVuma
p684
I2
sVanj
p685
I5
sVank
p686
I23
sVome
p687
I2
sVshr
p688
I39
sVpiy
p689
I4
sVsay
p690
I3
sVdev
p691
I10
sVmuk
p692
I2
sVden
p693
I2
sVkri
p694
I7
sVdee
p695
I29
sVtaa
p696
I2
sVsaj
p697
I3
sVami
p698
I27
sVtap
p699
I1
sVtar
p700
I1
sVtas
p701
I2
sVjha
p702
I3
sVrit
p703
I9
sVris
p704
I3
sVrin
p705
I3
sVavn
p706
I1
sVavi
p707
I4
sVvor
p708
I1
sVkha
p709
I4
sVtam
p710
I1
sVtan
p711
I5
sVyuv
p712
I9
sVava
p713
I3
sVtak
p714
I2
sVpap
p715
I2
sVpar
p716
I34
sVpat
p717
I16
sVpav
p718
I2
sVpaw
p719
I2
sVhon
p720
I2
sVpay
p721
I8
sVdhe
p722
I2
sVdha
p723
I40
sVric
p724
I2
sVatu
p725
I12
sVpad
p726
I1
sVhos
p727
I2
sVsid
p728
I6
sVdhw
p729
I1
sVpal
p730
I10
sVdhr
p731
I12
sVpan
p732
I21
sVsil
p733
I3
sVlal
p734
I5
sVnik
p735
I26
sVmas
p736
I2
sVmar
p737
I5
sVnil
p738
I27
sVnim
p739
I3
sVmay
p740
I18
sVkir
p741
I18
sVpri
p742
I58
sVnid
p743
I8
sVniz
p744
I1
sVniy
p745
I2
sVmad
p746
I7
sVlat
p747
I7
sVmah
p748
I32
sVmak
p749
I2
sVmam
p750
I5
sVnit
p751
I25
sVman
p752
I57
sVmok
p753
I2
sVdhi
p754
I6
sVgha
p755
I3
sVujj
p756
I1
sVsan
p757
I76
sVtha
p758
I6
sVkun
p759
I9
sVzen
p760
I1
sVsam
p761
I18
sVyes
p762
I6
sVfir
p763
I2
sVjig
p764
I11
sVamr
p765
I1
sVhem
p766
I15
sVhan
p767
I1
sVjin
p768
I7
sVjim
p769
I3
sVjiv
p770
I1
sVjit
p771
I8
sVtus
p772
I7
sVvan
p773
I2
sVbin
p774
I1
sVnav
p775
I3
sVhar
p776
I35
sVadi
p777
I3
sVdad
p778
I2
sVdil
p779
I2
sVbij
p780
I2
sVamo
p781
I14
sVama
p782
I2
sVmor
p783
I1
sVamb
p784
I2
sVame
p785
I3
sVaes
p786
I1
sVdak
p787
I3
sVdat
p788
I3
sVdav
p789
I2
sVmoh
p790
I11
sVmon
p791
I10
sVdar
p792
I13
sVbar
p793
I2
sVams
p794
I2
sVvim
p795
I2
sVbip
p796
I2
sVnay
p797
I2
sVpoo
p798
I24
sVshw
p799
I23
sNI24
sVjyo
p800
I8
sVnih
p801
I2
sVbha
p802
I52
sVsne
p803
I26
sVvsk
p804
I1
sVrez
p805
I2
sVnac
p806
I2
sVgoh
p807
I3
sVfor
p808
I5
sVsha
p809
I36
sVres
p810
I7
sVrev
p811
I1
sVume
p812
I1
sVaji
p813
I7
sVmru
p814
I13
sVren
p815
I2
sVsmi
p816
I11
sVdsf
p817
I1
sVaja
p818
I11
sVgow
p819
I2
sVgov
p820
I2
sVreg
p821
I1
sVgos
p822
I2
sVree
p823
I2
sVruk
p824
I4
sVpun
p825
I2
sVrun
p826
I2
sVpuj
p827
I6
sVast
p828
I2
sVkhu
p829
I15
sVruc
p830
I5
sVvai
p831
I29
sVrus
p832
I4
sVasi
p833
I1
sVash
p834
I26
sVbal
p835
I3
sVasm
p836
I3
sVpus
p837
I1
sVate
p838
I1
sVkap
p839
I1
sVpre
p840
I11
sVtru
p841
I8
sVyus
p842
I1
sVsri
p843
I2
sVati
p844
I2
sVyuk
p845
I1
sVish
p846
I1
sVyat
p847
I1
sVjwa
p848
I2
sVisa
p849
I1
sVsho
p850
I8
sVkin
p851
I14
sVonk
p852
I1
sVnaf
p853
I1
sVzai
p854
I3
sVsoh
p855
I3
sVsom
p856
I3
sVsol
p857
I2
sVson
p858
I16
sVnir
p859
I20
sVnis
p860
I22
sVnag
p861
I2
sVush
p862
I1
sVzar
p863
I1
sVhet
p864
I14
sVwal
p865
I2
sVkom
p866
I12
sVrik
p867
I4
sVniv
p868
I1
sVloh
p869
I4
sVvag
p870
I2
sVhee
p871
I5
sVlov
p872
I1
sVhel
p873
I3
sVvas
p874
I4
sVkos
p875
I1
sVkot
p876
I2
sVvat
p877
I1
sVhul
p878
I1
sVjuh
p879
I3
sVvar
p880
I9
sVuda
p881
I5
sVudd
p882
I1
sVhus
p883
I3
sVhen
p884
I2
sVste
p885
I4
sVbeh
p886
I2
sVsta
p887
I1
sVaak
p888
I3
sVbee
p889
I3
sVutp
p890
I1
sVaas
p891
I2
sVaar
p892
I6
sVsak
p893
I3
sVrag
p894
I1
sVsai
p895
I2
sVsah
p896
I6
sVpra
p897
I122
sVrac
p898
I5
sVbho
p899
I3
sVsal
p900
I2
sVsac
p901
I37
sVsab
p902
I3
sVann
p903
I1
sVram
p904
I8
sVraj
p905
I37
sVrak
p906
I10
sVrah
p907
I33
sVrai
p908
I4
sVrav
p909
I21
sVanu
p910
I18
sVrat
p911
I2
sVras
p912
I4
sVdur
p913
I1
sVsar
p914
I13
sVsap
p915
I2
sVbhu
p916
I15
sVsav
p917
I2
sVsau
p918
I9
sVsat
p919
I10
sVmih
p920
I6
sVmik
p921
I1
sVkis
p922
I1
sVmil
p923
I5
sVmin
p924
I5
sVyog
p925
I13
sVnak
p926
I2
sVlin
p927
I1
sVnai
p928
I6
sVnan
p929
I6
sVtir
p930
I1
sVnam
p931
I10
sVnar
p932
I7
sVlip
p933
I2
sVnat
p934
I2
sVnau
p935
I2
sVmis
p936
I3
sVmir
p937
I2
sVmit
p938
I5
sVrid
p939
I14
sVgri
p940
I1
sVrut
p941
I3
sVgom
p942
I2
sVkak
p943
I1
sVkaj
p944
I4
sVkai
p945
I2
sVkan
p946
I6
sVkam
p947
I3
sVkal
p948
I4
sVkas
p949
I1
sVkar
p950
I7
sVsud
p951
I2
sVkav
p952
I3
sVkau
p953
I7
sVutt
p954
I2
sVkay
p955
I2
sVdoc
p956
I2
sVurv
p957
I2
sVdos
p958
I2
sVgaj
p959
I4
stp960
Rp961
sg46
I1064
sg47
F3629.0
sbs(g10
S'name_first_two'
p962
tp963
g0
(g17
g2
Ntp964
Rp965
(dp966
g21
F0.5
sg22
I4571
sg23
g24
((dp967
Vgu
p968
I27
sVgy
p969
I2
sVge
p970
I5
sVga
p971
I51
sVgo
p972
I10
sVgi
p973
I6
sVgh
p974
I2
sVkh
p975
I17
sVle
p976
I3
sVla
p977
I20
sVlo
p978
I9
sVtu
p979
I2
sVtr
p980
I1
sVli
p981
I3
sVto
p982
I4
sVlu
p983
I11
sVlr
p984
I1
sVth
p985
I4
sVti
p986
I2
sVsu
p987
I124
sVte
p988
I5
sVta
p989
I51
sVdo
p990
I8
sVdk
p991
I1
sVyo
p992
I16
sVdi
p993
I50
sVya
p994
I16
sVde
p995
I62
sVda
p996
I7
sVdy
p997
I1
sVdu
p998
I3
sVdr
p999
I2
sVyu
p1000
I12
sVqu
p1001
I2
sNI50
sVqa
p1002
I2
sVxy
p1003
I2
sVsk
p1004
I4
sVem
p1005
I2
sVzo
p1006
I10
sVzi
p1007
I10
sVek
p1008
I3
sVej
p1009
I1
sVze
p1010
I10
sVza
p1011
I21
sVmk
p1012
I1
sVet
p1013
I2
sVes
p1014
I1
sVba
p1015
I11
sVru
p1016
I34
sVrr
p1017
I1
sVry
p1018
I1
sVak
p1019
I41
sVrd
p1020
I3
sVre
p1021
I37
sVra
p1022
I215
sVro
p1023
I46
sVri
p1024
I77
sVrk
p1025
I1
sVbe
p1026
I2
sVjy
p1027
I33
sVwa
p1028
I11
sVju
p1029
I9
sVmr
p1030
I9
sVbh
p1031
I39
sVbi
p1032
I12
sVbu
p1033
I9
sVjo
p1034
I5
sVji
p1035
I20
sVbr
p1036
I8
sVje
p1037
I5
sVja
p1038
I48
sVom
p1039
I4
sVvi
p1040
I113
sVch
p1041
I35
sVcl
p1042
I1
sVxx
p1043
I1
sVen
p1044
I2
sVad
p1045
I21
sVpr
p1046
I184
sVpu
p1047
I16
sVai
p1048
I7
sVpa
p1049
I80
sVpe
p1050
I4
sVpk
p1051
I1
sVph
p1052
I2
sVpi
p1053
I6
sVpo
p1054
I40
sVhu
p1055
I8
sVaj
p1056
I25
sVhr
p1057
I1
sVhs
p1058
I1
sVsy
p1059
I41
sVit
p1060
I4
sVhh
p1061
I1
sVhi
p1062
I23
sVho
p1063
I2
sVha
p1064
I42
sVhe
p1065
I27
sVme
p1066
I35
sVmd
p1067
I37
sVma
p1068
I126
sVsc
p1069
I2
sVuz
p1070
I6
sVut
p1071
I7
sVmo
p1072
I159
sVmi
p1073
I21
sVup
p1074
I2
sVus
p1075
I1
sVur
p1076
I2
sVmu
p1077
I36
sVun
p1078
I3
sVuj
p1079
I1
sVku
p1080
I26
sVmy
p1081
I1
sVub
p1082
I1
sVaa
p1083
I56
sVva
p1084
I45
sVac
p1085
I2
sVab
p1086
I52
sVae
p1087
I1
sVve
p1088
I1
sVag
p1089
I2
sVaf
p1090
I23
sViq
p1091
I1
sVah
p1092
I7
sVis
p1093
I13
sVir
p1094
I12
sVam
p1095
I68
sVal
p1096
I31
sVan
p1097
I174
sVaq
p1098
I1
sVap
p1099
I17
sVas
p1100
I59
sVar
p1101
I74
sVim
p1102
I21
sVil
p1103
I5
sVav
p1104
I13
sVay
p1105
I28
sVaz
p1106
I16
sVid
p1107
I1
sVif
p1108
I4
sVni
p1109
I99
sVib
p1110
I3
sVnl
p1111
I2
sVdh
p1112
I13
sVno
p1113
I10
sVna
p1114
I103
sVne
p1115
I89
sVzu
p1116
I4
sVer
p1117
I2
sVnu
p1118
I5
sVfu
p1119
I2
sVfa
p1120
I53
sVfe
p1121
I5
sVfh
p1122
I2
sVfi
p1123
I4
sVfk
p1124
I1
sVfo
p1125
I1
sVum
p1126
I11
sVka
p1127
I85
sVin
p1128
I10
sVke
p1129
I6
sVss
p1130
I2
sVsr
p1131
I3
sVki
p1132
I14
sVsp
p1133
I1
sVko
p1134
I2
sVsv
p1135
I2
sVkm
p1136
I1
sVst
p1137
I2
sVks
p1138
I4
sVkr
p1139
I22
sVsi
p1140
I20
sVsh
p1141
I355
sVso
p1142
I42
sVsn
p1143
I10
sVsm
p1144
I4
sVat
p1145
I15
sVsb
p1146
I1
sVsa
p1147
I297
sVsg
p1148
I2
sVsw
p1149
I20
sVse
p1150
I20
sVsd
p1151
I1
stp1152
Rp1153
sg46
I247
sg47
F4694.5
sbs(g12
g527
tp1154
g0
(g17
g2
Ntp1155
Rp1156
(dp1157
g21
F0.5
sg22
I1496
sg23
g24
((dp1158
Vroh
p1159
I3
sVron
p1160
I2
sVroo
p1161
I2
sVkus
p1162
I1
sVrob
p1163
I1
sVros
p1164
I3
sVver
p1165
I1
sVjat
p1166
I11
sVali
p1167
I2
sVjas
p1168
I49
sVjap
p1169
I1
sVvee
p1170
I2
sVjag
p1171
I7
sVksh
p1172
I1
sVhit
p1173
I1
sVgee
p1174
I3
sVhim
p1175
I4
sVhin
p1176
I1
sVdil
p1177
I5
sVdim
p1178
I2
sVshr
p1179
I3
sVhyd
p1180
I1
sVshw
p1181
I3
sVeva
p1182
I1
sVgun
p1183
I3
sVgul
p1184
I3
sVgur
p1185
I48
sVbab
p1186
I2
sVshe
p1187
I1
sVban
p1188
I4
sVshi
p1189
I15
sVdiv
p1190
I6
sVesh
p1191
I3
sVbak
p1192
I2
sVtej
p1193
I2
sVars
p1194
I3
sVaru
p1195
I4
sVarv
p1196
I5
sVsex
p1197
I1
sVsee
p1198
I3
sVdev
p1199
I3
sVari
p1200
I2
sVarj
p1201
I3
sVarn
p1202
I1
sVaro
p1203
I8
sVsud
p1204
I3
sVneh
p1205
I14
sVabh
p1206
I4
sVsun
p1207
I13
sVsum
p1208
I6
sVnee
p1209
I6
sVsuk
p1210
I11
sVsuj
p1211
I4
sVkun
p1212
I6
sVkul
p1213
I8
sVsus
p1214
I2
sVsur
p1215
I8
sVsup
p1216
I5
sVmun
p1217
I2
sVmuk
p1218
I5
sVmee
p1219
I6
sVmeg
p1220
I2
sVlee
p1221
I2
sVtus
p1222
I2
sVjog
p1223
I1
sVjoh
p1224
I2
sVvri
p1225
I1
sVhka
p1226
I1
sVekl
p1227
I1
sVaki
p1228
I2
sVakm
p1229
I2
sVvib
p1230
I1
sVpre
p1231
I15
sVvij
p1232
I1
sVvik
p1233
I5
sVvin
p1234
I2
sVapu
p1235
I3
sVvir
p1236
I3
sVvis
p1237
I14
sVvip
p1238
I2
sVviv
p1239
I1
sVapo
p1240
I1
sVsan
p1241
I25
sVcha
p1242
I10
sVche
p1243
I4
sVswa
p1244
I3
sVchi
p1245
I2
sVsal
p1246
I1
sVsac
p1247
I4
sVyad
p1248
I2
sVyac
p1249
I2
sVgaz
p1250
I2
sVraj
p1251
I31
sVgau
p1252
I9
sVgar
p1253
I5
sVkhu
p1254
I2
sVrah
p1255
I10
sVgag
p1256
I7
sVcap
p1257
I2
sVais
p1258
I1
sVcvb
p1259
I2
sVdee
p1260
I29
sVbin
p1261
I2
sVtar
p1262
I9
sVriy
p1263
I1
sVavt
p1264
I1
sVrit
p1265
I7
sVris
p1266
I4
sVrin
p1267
I4
sVrim
p1268
I2
sVsar
p1269
I15
sVtam
p1270
I1
sVjps
p1271
I1
sVati
p1272
I1
sVric
p1273
I6
sVtaj
p1274
I2
sVria
p1275
I1
sVpar
p1276
I28
sVdhi
p1277
I1
sVpaw
p1278
I5
sVhon
p1279
I1
sVpay
p1280
I2
sVdhe
p1281
I2
sVdal
p1282
I6
sVkri
p1283
I1
sVsid
p1284
I8
sVray
p1285
I1
sVpal
p1286
I2
sVpam
p1287
I1
sVpan
p1288
I4
sVsil
p1289
I1
sVnik
p1290
I5
sVnih
p1291
I1
sVlak
p1292
I6
sVmay
p1293
I5
sVkir
p1294
I9
sVnid
p1295
I8
sVmad
p1296
I1
sVmag
p1297
I2
sVnir
p1298
I2
sVnis
p1299
I8
sVnip
p1300
I1
sVmam
p1301
I2
sVmal
p1302
I3
sVnit
p1303
I6
sVman
p1304
I71
sVani
p1305
I2
sVjiw
p1306
I2
sVjit
p1307
I6
sVnav
p1308
I23
sVhar
p1309
I49
sVhav
p1310
I1
sVadi
p1311
I4
sVami
p1312
I22
sVbik
p1313
I2
sVama
p1314
I30
sVdam
p1315
I2
sVamb
p1316
I1
sVdin
p1317
I4
sVdak
p1318
I2
sVdav
p1319
I7
sVmoh
p1320
I8
sVmon
p1321
I7
sVdar
p1322
I2
sVbar
p1323
I3
sVamr
p1324
I10
sVbir
p1325
I2
sVpoo
p1326
I10
sNI28
sVdhr
p1327
I2
sVsim
p1328
I17
sVshy
p1329
I1
sVjyo
p1330
I7
sVkde
p1331
I1
sVgol
p1332
I1
sVsha
p1333
I9
sVgob
p1334
I1
sVume
p1335
I3
sVsmi
p1336
I1
sVnic
p1337
I2
sVaja
p1338
I5
sVgop
p1339
I1
sVree
p1340
I3
sVpun
p1341
I6
sVpuk
p1342
I1
sVrub
p1343
I2
sVruc
p1344
I3
sVasg
p1345
I1
sVvan
p1346
I3
sVrup
p1347
I3
sVash
p1348
I19
sVbal
p1349
I8
sVluc
p1350
I1
sVobe
p1351
I2
sVkru
p1352
I1
sVish
p1353
I4
sVsoh
p1354
I1
sVson
p1355
I15
sVlat
p1356
I5
sVsou
p1357
I3
sVmah
p1358
I2
sVvai
p1359
I3
sVkom
p1360
I2
sVgir
p1361
I1
sVaan
p1362
I3
sVhee
p1363
I1
sVlov
p1364
I2
sVhea
p1365
I2
sVjee
p1366
I3
sVvar
p1367
I16
sVhem
p1368
I5
sVjub
p1369
I1
sVseh
p1370
I2
sVgin
p1371
I1
sVudi
p1372
I1
sVbea
p1373
I2
sVaak
p1374
I2
sViqr
p1375
I1
sViqb
p1376
I1
sVsak
p1377
I6
sVrag
p1378
I2
sVrad
p1379
I2
sVsah
p1380
I9
sVpra
p1381
I16
sVrac
p1382
I2
sVsam
p1383
I7
sVanc
p1384
I1
sVbha
p1385
I6
sVsab
p1386
I3
sVram
p1387
I12
sVpri
p1388
I25
sVrak
p1389
I7
sVanj
p1390
I3
sVank
p1391
I19
sVrav
p1392
I13
sVanu
p1393
I11
sVanv
p1394
I1
sVras
p1395
I5
sVans
p1396
I2
sVind
p1397
I9
sVkha
p1398
I3
sVbhu
p1399
I1
sVsau
p1400
I7
sVsat
p1401
I9
sVmin
p1402
I2
sVyog
p1403
I4
sVnak
p1404
I1
sVnan
p1405
I1
sVtir
p1406
I1
sVnam
p1407
I2
sVnar
p1408
I2
sVtin
p1409
I2
sVlip
p1410
I2
sVmis
p1411
I2
sVnay
p1412
I2
sVmit
p1413
I1
sVrid
p1414
I2
sVkaa
p1415
I1
sVkan
p1416
I4
sVkam
p1417
I18
sVkar
p1418
I24
sVran
p1419
I13
sVkaw
p1420
I1
sVkau
p1421
I3
sVtan
p1422
I8
sVdol
p1423
I1
sVurv
p1424
I2
sVmri
p1425
I2
sVsin
p1426
I2
stp1427
Rp1428
sg46
I1064
sg47
F2028.0
sbs(g9
S'name_last_four'
p1429
tp1430
g0
(g17
g2
Ntp1431
Rp1432
(dp1433
g21
F0.5
sg22
I3097
sg23
g24
((dp1434
Vhesh
p1435
I3
sVshor
p1436
I1
sVhwar
p1437
I10
sVhela
p1438
I1
sVlesh
p1439
I4
sVayee
p1440
I4
sVhada
p1441
I7
sVnali
p1442
I1
sVdhan
p1443
I6
sValli
p1444
I2
sVkesh
p1445
I2
sVnath
p1446
I5
sVhini
p1447
I2
sVmmad
p1448
I1
sVbanu
p1449
I2
sVgini
p1450
I1
sVysha
p1451
I2
sVijay
p1452
I1
sVraka
p1453
I1
sVshri
p1454
I1
sVkshi
p1455
I2
sVhali
p1456
I19
sVksha
p1457
I8
sVaheb
p1458
I1
sVhive
p1459
I2
sVekar
p1460
I1
sVddha
p1461
I7
sValee
p1462
I1
sVhari
p1463
I1
sVngee
p1464
I2
sVhboo
p1465
I4
sVibha
p1466
I3
sVndra
p1467
I32
sVhara
p1468
I2
sVpali
p1469
I2
sVchee
p1470
I2
sVkbar
p1471
I1
sVkant
p1472
I13
sVshma
p1473
I1
sVvada
p1474
I2
sVtubh
p1475
I1
sVvadi
p1476
I1
sVhish
p1477
I2
sVisha
p1478
I3
sVawan
p1479
I2
sVjali
p1480
I1
sViraj
p1481
I2
sViran
p1482
I1
sVatel
p1483
I4
sVhosj
p1484
I2
sVhosh
p1485
I3
sVshna
p1486
I1
sVsinh
p1487
I7
sVhabh
p1488
I1
sVhyam
p1489
I3
sVmita
p1490
I1
sVttam
p1491
I2
sVsfas
p1492
I2
sVeesh
p1493
I2
sVjeet
p1494
I5
sVangi
p1495
I3
sVhita
p1496
I2
sVajid
p1497
I1
sVthod
p1498
I2
sVshra
p1499
I3
sVdini
p1500
I4
sVkade
p1501
I2
sVhree
p1502
I19
sViyar
p1503
I1
sVanth
p1504
I3
sVapal
p1505
I2
sVmara
p1506
I3
sVdhar
p1507
I5
sVdiya
p1508
I3
sVswee
p1509
I2
sVmami
p1510
I2
sVnavi
p1511
I2
sVarte
p1512
I2
sVnaya
p1513
I2
sVjani
p1514
I2
sVliya
p1515
I1
sVkhat
p1516
I1
sVhiye
p1517
I2
sVthar
p1518
I1
sVadev
p1519
I1
sVshek
p1520
I7
sVesha
p1521
I1
sVarth
p1522
I4
sVvani
p1523
I2
sVsiya
p1524
I2
sVwara
p1525
I2
sVadha
p1526
I7
sVtkar
p1527
I1
sVadgi
p1528
I2
sVhica
p1529
I2
sVwana
p1530
I1
sVudas
p1531
I2
sVdhha
p1532
I2
sVwani
p1533
I2
sVdeep
p1534
I2
sVtosh
p1535
I1
sVumar
p1536
I20
sVhavi
p1537
I3
sVvesh
p1538
I2
sVakta
p1539
I7
sVnshi
p1540
I3
sVraya
p1541
I1
sVnshu
p1542
I3
sVshan
p1543
I5
sNI2612
sVnjay
p1544
I2
sVhank
p1545
I4
sVanka
p1546
I35
sVwati
p1547
I4
sVhana
p1548
I10
sVhnum
p1549
I2
sVwami
p1550
I2
sViket
p1551
I2
sVansh
p1552
I2
sVmesh
p1553
I8
sVdien
p1554
I2
sVasen
p1555
I2
sVnesh
p1556
I2
sVmani
p1557
I2
sVtesh
p1558
I2
sVhant
p1559
I23
sVyant
p1560
I2
sVsali
p1561
I1
sVyans
p1562
I2
sVriya
p1563
I2
sVklas
p1564
I1
sVutti
p1565
I1
sVyana
p1566
I1
sVtasp
p1567
I1
sVtali
p1568
I6
stp1569
Rp1570
sg46
I647
sg47
F3420.5
sbs(g11
g48
tp1571
g0
(g17
g2
Ntp1572
Rp1573
(dp1574
g21
F0.5
sg22
I1461
sg23
g24
((dp1575
g26
I238
sg54
I20
sg27
I64
sg28
I5
sg29
I78
sg55
I17
sVf
p1576
I5
sg30
I18
sg31
I9
sg32
I41
sg33
I28
sg34
I133
sg35
I10
sg56
I6
sg36
I51
sVq
p1577
I2
sg37
I123
sg38
I424
sg39
I116
sg40
I7
sg41
I46
sVw
p1578
I1
sg42
I10
sg43
I2
sVz
p1579
I7
stp1580
Rp1581
sg46
I26
sg47
F1474.0
sbs(g9
S'name_last_three'
p1582
tp1583
g0
(g17
g2
Ntp1584
Rp1585
(dp1586
g21
F0.5
sg22
I3097
sg23
g24
((dp1587
Vrte
p1588
I2
sVali
p1589
I40
sVale
p1590
I1
sVyee
p1591
I4
sVrth
p1592
I4
sVita
p1593
I12
sVosh
p1594
I13
sVtti
p1595
I1
sVosj
p1596
I2
sVdha
p1597
I15
sVmna
p1598
I1
sVnge
p1599
I1
sVjid
p1600
I1
sVeli
p1601
I2
sVhal
p1602
I10
sVham
p1603
I1
sVhan
p1604
I25
sVjay
p1605
I3
sVjat
p1606
I1
sVela
p1607
I1
sVhad
p1608
I2
sVngi
p1609
I7
sVjit
p1610
I7
sVade
p1611
I3
sVhri
p1612
I1
sVien
p1613
I2
sVnav
p1614
I1
sVhar
p1615
I10
sVhra
p1616
I3
sVnya
p1617
I3
sVhav
p1618
I9
sVadi
p1619
I1
sVami
p1620
I6
sVhit
p1621
I2
sVfas
p1622
I2
sVrna
p1623
I1
sVgee
p1624
I2
sVdas
p1625
I2
sVhik
p1626
I2
sVhil
p1627
I3
sVhya
p1628
I2
sVyot
p1629
I1
sVbar
p1630
I1
sVshu
p1631
I3
sVeet
p1632
I9
sVlli
p1633
I2
sNI2075
sVeem
p1634
I2
sVsha
p1635
I32
sVeen
p1636
I3
sVshi
p1637
I7
sVesh
p1638
I71
sVarp
p1639
I2
sVtel
p1640
I4
sVoli
p1641
I1
sVeep
p1642
I20
sVara
p1643
I7
sVbha
p1644
I3
sVnum
p1645
I2
sVsen
p1646
I2
sVabh
p1647
I8
sVica
p1648
I2
sVnee
p1649
I2
sVaja
p1650
I2
sVaje
p1651
I1
sVree
p1652
I19
sVasp
p1653
I1
sVlee
p1654
I1
sVcha
p1655
I2
sVnth
p1656
I3
sVika
p1657
I23
sViki
p1658
I2
sVash
p1659
I12
sVwee
p1660
I2
sVata
p1661
I6
sVnda
p1662
I2
sVath
p1663
I10
sVati
p1664
I6
sVine
p1665
I1
sVatt
p1666
I1
sVish
p1667
I16
sVboo
p1668
I4
sVdra
p1669
I34
sVaka
p1670
I3
sVnsh
p1671
I4
sVaya
p1672
I3
sVuza
p1673
I3
sVyap
p1674
I1
sVwan
p1675
I2
sVwal
p1676
I3
sVval
p1677
I1
sVdni
p1678
I3
sVjal
p1679
I1
sVyas
p1680
I2
sVyar
p1681
I1
sVyam
p1682
I3
sVhee
p1683
I2
sVyan
p1684
I2
sVyak
p1685
I3
sVayu
p1686
I2
sVman
p1687
I3
sVwar
p1688
I10
sVhek
p1689
I7
sVnka
p1690
I35
sVheb
p1691
I1
sVala
p1692
I4
sVgav
p1693
I6
sVada
p1694
I13
sVudh
p1695
I1
sVsdh
p1696
I1
sVhma
p1697
I2
sViye
p1698
I2
sVaag
p1699
I1
sViya
p1700
I23
sVhat
p1701
I3
sVuti
p1702
I2
sVsth
p1703
I2
sVery
p1704
I2
sVdev
p1705
I3
sVain
p1706
I2
sVtna
p1707
I2
sVehi
p1708
I3
sVkta
p1709
I7
sVavi
p1710
I15
sVive
p1711
I2
sVang
p1712
I4
sVana
p1713
I38
sVoti
p1714
I1
sVran
p1715
I1
sVkya
p1716
I4
sVraj
p1717
I8
sVani
p1718
I15
sVnna
p1719
I1
sVank
p1720
I9
sVant
p1721
I57
sVanu
p1722
I2
sVhha
p1723
I2
sVinh
p1724
I7
sVini
p1725
I14
sVket
p1726
I2
sVans
p1727
I2
sVtal
p1728
I6
sVkha
p1729
I2
sVtan
p1730
I13
sVrid
p1731
I1
sVeah
p1732
I2
sVnke
p1733
I1
sVhod
p1734
I2
sVhbu
p1735
I6
sVmin
p1736
I1
sVnan
p1737
I3
sVnal
p1738
I1
sVsia
p1739
I2
sVeta
p1740
I2
sVhor
p1741
I1
sVnki
p1742
I2
sVpak
p1743
I1
sVpal
p1744
I4
sVtam
p1745
I2
sVmar
p1746
I20
sVthi
p1747
I4
sVnil
p1748
I14
sVsna
p1749
I1
sVmay
p1750
I1
sVdgi
p1751
I2
sVkar
p1752
I3
sVmad
p1753
I1
sVubh
p1754
I1
sVlas
p1755
I1
sVhna
p1756
I6
sVure
p1757
I1
sVura
p1758
I4
sVsvi
p1759
I1
sVuri
p1760
I1
sVlpa
p1761
I2
sVari
p1762
I4
sVtha
p1763
I2
stp1764
Rp1765
sg46
I510
sg47
F3352.0
sbs(g10
g1582
tp1766
g0
(g17
g2
Ntp1767
Rp1768
(dp1769
g21
F0.5
sg22
I4571
sg23
g24
((dp1770
Vlly
p1771
I2
sVeda
p1772
I3
sVali
p1773
I7
sVrti
p1774
I1
sVrth
p1775
I5
sVpta
p1776
I1
sVita
p1777
I16
sVosh
p1778
I10
sVkha
p1779
I2
sVdha
p1780
I15
sVlla
p1781
I4
sVrya
p1782
I2
sVima
p1783
I6
sVkar
p1784
I5
sVfiq
p1785
I1
sVhal
p1786
I6
sVham
p1787
I5
sVhan
p1788
I20
sVjay
p1789
I5
sViti
p1790
I8
sVngh
p1791
I9
sVngi
p1792
I7
sVjan
p1793
I2
sVhay
p1794
I3
sVjit
p1795
I3
sVhri
p1796
I5
sVada
p1797
I4
sVhar
p1798
I8
sVhra
p1799
I2
sVhav
p1800
I5
sVila
p1801
I2
sVcee
p1802
I2
sVhit
p1803
I2
sVnam
p1804
I7
sVfar
p1805
I4
sVdan
p1806
I1
sVtik
p1807
I1
sVhid
p1808
I6
sVdar
p1809
I1
sVsht
p1810
I1
sVhik
p1811
I1
sVbir
p1812
I1
sVhim
p1813
I3
sVhin
p1814
I1
sVtri
p1815
I3
sVhya
p1816
I7
sVdin
p1817
I7
sVbar
p1818
I4
sVshu
p1819
I8
sVeez
p1820
I1
sVeet
p1821
I5
sVeev
p1822
I9
sVeep
p1823
I48
sNI3264
sVeer
p1824
I14
sVeem
p1825
I3
sVsha
p1826
I39
sVeen
p1827
I61
sVeek
p1828
I13
sVdit
p1829
I2
sVeed
p1830
I1
sVshk
p1831
I2
sVarp
p1832
I2
sVaan
p1833
I2
sVhti
p1834
I1
sVrma
p1835
I3
sVgum
p1836
I1
sVous
p1837
I2
sVoda
p1838
I1
sVtva
p1839
I1
sVtta
p1840
I1
sVand
p1841
I3
sVabh
p1842
I32
sVsum
p1843
I1
sVsna
p1844
I3
sVfta
p1845
I11
sVesa
p1846
I2
sVpee
p1847
I1
sVesh
p1848
I41
sVmed
p1849
I48
sVata
p1850
I4
sVika
p1851
I55
sVhak
p1852
I1
sVque
p1853
I10
sVkey
p1854
I1
sVshi
p1855
I16
sVqui
p1856
I1
sViki
p1857
I1
sVikh
p1858
I4
sVgir
p1859
I1
sVzur
p1860
I2
sVeza
p1861
I1
sVekh
p1862
I1
sVnda
p1863
I5
sVath
p1864
I13
sVati
p1865
I5
sVine
p1866
I2
sVavi
p1867
I16
sVish
p1868
I7
sVboo
p1869
I2
sVdra
p1870
I49
sVeth
p1871
I2
sVaaz
p1872
I4
sVndu
p1873
I1
sVmad
p1874
I30
sVbhi
p1875
I2
sVela
p1876
I1
sVvie
p1877
I1
sVhad
p1878
I4
sVori
p1879
I2
sVuza
p1880
I1
sVvir
p1881
I2
sVyya
p1882
I2
sVsen
p1883
I1
sVana
p1884
I35
sVhet
p1885
I2
sVash
p1886
I26
sVdul
p1887
I2
sVwaj
p1888
I1
sVlik
p1889
I2
sVchi
p1890
I1
sVdni
p1891
I2
sVaus
p1892
I2
sVush
p1893
I1
sVyam
p1894
I3
sVyal
p1895
I1
sVyan
p1896
I1
sVfer
p1897
I5
sVwaz
p1898
I7
sVeha
p1899
I1
sVwat
p1900
I1
sVwar
p1901
I6
sVhek
p1902
I20
sVndi
p1903
I1
sVrsh
p1904
I4
sVrsi
p1905
I1
sVoob
p1906
I4
sVala
p1907
I2
sVool
p1908
I2
sVukh
p1909
I1
sVgar
p1910
I2
sVjul
p1911
I1
sVani
p1912
I17
sVoot
p1913
I2
sVogi
p1914
I2
sVhmi
p1915
I3
sVoor
p1916
I2
sVwal
p1917
I3
sVudh
p1918
I2
sVank
p1919
I6
sVhma
p1920
I6
sVaad
p1921
I1
sViya
p1922
I19
sVsta
p1923
I5
sVaka
p1924
I2
sVree
p1925
I4
sVder
p1926
I14
sVuti
p1927
I2
sVuis
p1928
I2
sVain
p1929
I3
sVutt
p1930
I1
sVaya
p1931
I2
sVehi
p1932
I2
sVein
p1933
I3
sVpih
p1934
I1
sVrva
p1935
I3
sVohi
p1936
I1
sVnka
p1937
I34
sVbha
p1938
I4
sVram
p1939
I1
sVraj
p1940
I8
sVhir
p1941
I3
sVoti
p1942
I1
sVsad
p1943
I1
sVant
p1944
I25
sVanu
p1945
I1
sVrat
p1946
I3
sVini
p1947
I11
sVans
p1948
I2
sVari
p1949
I3
sVsar
p1950
I1
sVoba
p1951
I1
sVina
p1952
I7
sVsir
p1953
I1
sVtal
p1954
I8
sVmil
p1955
I1
sVdhi
p1956
I3
sVqar
p1957
I2
sVnan
p1958
I1
sVnum
p1959
I3
sVnyu
p1960
I3
sVama
p1961
I2
sVeta
p1962
I7
sVnav
p1963
I9
sVgra
p1964
I2
sVnaz
p1965
I1
sVnay
p1966
I1
sVpal
p1967
I3
sVvaj
p1968
I1
sVlam
p1969
I4
sVmar
p1970
I5
sVlah
p1971
I8
sVena
p1972
I10
sVmay
p1973
I1
sVyla
p1974
I1
sVtya
p1975
I1
sVhbu
p1976
I3
sVkin
p1977
I2
sVmah
p1978
I1
sVisa
p1979
I6
sVman
p1980
I5
sVhna
p1981
I9
sVura
p1982
I2
sVnna
p1983
I1
sVmin
p1984
I4
sVica
p1985
I1
sVtha
p1986
I6
stp1987
Rp1988
sg46
I510
sg47
F4826.0
sbs(g10
g1429
tp1989
g0
(g17
g2
Ntp1990
Rp1991
(dp1992
g21
F0.5
sg22
I4571
sg23
g24
((dp1993
Vhnan
p1994
I1
sVeqar
p1995
I2
sVnsha
p1996
I2
sVskin
p1997
I2
sVhnav
p1998
I2
sVlesh
p1999
I5
sVooda
p2000
I1
sVrika
p2001
I3
sVhada
p2002
I1
sVnima
p2003
I2
sVanyu
p2004
I3
sVdhan
p2005
I1
sVakar
p2006
I1
sVnkar
p2007
I4
sVkesh
p2008
I3
sVavaj
p2009
I1
sVufta
p2010
I11
sVddin
p2011
I7
sVmmad
p2012
I29
sVakha
p2013
I2
sVohan
p2014
I1
sVique
p2015
I5
sVijay
p2016
I1
sVhtva
p2017
I1
sVdita
p2018
I2
sVkash
p2019
I2
sVkshi
p2020
I4
sVhali
p2021
I3
sVlvie
p2022
I1
sVksha
p2023
I12
sVlika
p2024
I1
sVstha
p2025
I1
sVnisa
p2026
I6
sNI3980
sVddha
p2027
I3
sVsana
p2028
I3
sVtika
p2029
I3
sVrein
p2030
I3
sVarya
p2031
I2
sVheen
p2032
I4
sVkram
p2033
I1
sVchet
p2034
I2
sVdiya
p2035
I1
sVhboo
p2036
I2
sVibha
p2037
I4
sVndra
p2038
I47
sVwati
p2039
I4
sValik
p2040
I2
sVrrat
p2041
I3
sVkant
p2042
I6
sVnaaz
p2043
I4
sVshma
p2044
I6
sVisht
p2045
I1
sVoque
p2046
I2
sVingh
p2047
I9
sVawat
p2048
I1
sVufar
p2049
I2
sVawaz
p2050
I7
sVyash
p2051
I3
sVhish
p2052
I2
sVssir
p2053
I1
sVisha
p2054
I3
sVriti
p2055
I3
sVaath
p2056
I2
sVmath
p2057
I1
sVendu
p2058
I1
sVefer
p2059
I1
sVamed
p2060
I3
sVidul
p2061
I2
sVasad
p2062
I1
sVnchi
p2063
I1
sVofer
p2064
I1
sVhand
p2065
I2
sVanam
p2066
I1
sVssar
p2067
I1
sVajit
p2068
I1
sVllah
p2069
I8
sVafiq
p2070
I1
sVngir
p2071
I1
sVrjit
p2072
I2
sVjeet
p2073
I1
sVangi
p2074
I7
sVhmed
p2075
I1
sVhita
p2076
I5
sVmani
p2077
I2
sVnder
p2078
I14
sVdaya
p2079
I1
sVwala
p2080
I2
sVshra
p2081
I2
sVeque
p2082
I3
sVqath
p2083
I2
sVshri
p2084
I2
sVmmil
p2085
I1
sVhree
p2086
I4
sVagra
p2087
I2
sVkhan
p2088
I8
sVayal
p2089
I1
sVdhar
p2090
I1
sVitha
p2091
I1
sVanda
p2092
I1
sVmari
p2093
I2
sVmmed
p2094
I40
sVeena
p2095
I3
sVkhar
p2096
I1
sVarth
p2097
I5
sVarma
p2098
I3
sVtash
p2099
I2
sVdini
p2100
I1
sViman
p2101
I1
sVimah
p2102
I1
sVmika
p2103
I1
sValam
p2104
I2
sVshek
p2105
I20
sVesha
p2106
I2
sVthan
p2107
I1
sVahad
p2108
I1
sVnnum
p2109
I3
sVmeen
p2110
I2
sVhiki
p2111
I1
sVipal
p2112
I2
sVyesh
p2113
I1
sViqui
p2114
I1
sVtosh
p2115
I2
sVegum
p2116
I1
sVagar
p2117
I2
sVzeer
p2118
I2
sVdwaj
p2119
I1
sVbanu
p2120
I1
sVayla
p2121
I1
sVetta
p2122
I1
sVyush
p2123
I1
sVchal
p2124
I1
sVasha
p2125
I1
sVdeen
p2126
I3
sVadha
p2127
I5
sVumar
p2128
I5
sVwant
p2129
I1
sVshir
p2130
I1
sVchay
p2131
I2
sVufer
p2132
I2
sVvesh
p2133
I1
sVyoti
p2134
I1
sVnshi
p2135
I4
sVnjan
p2136
I2
sVkkey
p2137
I1
sVeela
p2138
I1
sVwwar
p2139
I1
sVshad
p2140
I1
sVnshu
p2141
I8
sVrath
p2142
I1
sVshan
p2143
I1
sVnjay
p2144
I2
sVsham
p2145
I2
sVhank
p2146
I6
sVanka
p2147
I34
sVkori
p2148
I2
sVssum
p2149
I1
sVusen
p2150
I1
sVhana
p2151
I1
sVndar
p2152
I1
sVvada
p2153
I1
sVupta
p2154
I1
sVrtha
p2155
I2
sVeeth
p2156
I2
sVnesh
p2157
I2
sVhans
p2158
I2
sVeeta
p2159
I6
sVulla
p2160
I2
sVhant
p2161
I4
sVyant
p2162
I1
sVriya
p2163
I7
sVious
p2164
I1
sVarsi
p2165
I1
sVhman
p2166
I1
sVsekh
p2167
I1
sVaikh
p2168
I4
sVooba
p2169
I1
sVrshi
p2170
I1
sVsain
p2171
I1
sVhmad
p2172
I1
stp2173
Rp2174
sg46
I647
sg47
F4894.5
sbs(g9
g59
tp2175
g0
(g17
g2
Ntp2176
Rp2177
(dp2178
g21
F0.5
sg22
I3097
sg23
g24
((dp2179
Vhris
p2180
I2
sVsuni
p2181
I13
sVsunn
p2182
I2
sVjimi
p2183
I3
sVgand
p2184
I2
sVgane
p2185
I15
sVdish
p2186
I10
sVmilo
p2187
I2
sVsuna
p2188
I1
sVgowr
p2189
I2
sVmili
p2190
I3
sVrizw
p2191
I1
sVnita
p2192
I2
sVswat
p2193
I11
sVtush
p2194
I7
sVswap
p2195
I16
sVkeda
p2196
I1
sVsona
p2197
I16
sVvasi
p2198
I2
sVrish
p2199
I3
sVprie
p2200
I2
sVhema
p2201
I13
sVheme
p2202
I2
sVjack
p2203
I1
sVvasu
p2204
I2
sVsant
p2205
I14
sVmahi
p2206
I2
sVmaha
p2207
I5
sVmahe
p2208
I25
sVsang
p2209
I4
sVsand
p2210
I33
sVanan
p2211
I9
sVsanj
p2212
I10
sVsank
p2213
I13
sVrach
p2214
I5
sVsani
p2215
I2
sVchet
p2216
I18
sVnait
p2217
I2
sVekta
p2218
I4
sVnaim
p2219
I2
sVnain
p2220
I2
sVjhee
p2221
I2
sVsaya
p2222
I1
sVritu
p2223
I3
sVratn
p2224
I2
sVchel
p2225
I2
sVsayl
p2226
I2
sVkrit
p2227
I2
sVkris
p2228
I4
sVnana
p2229
I1
sVsapa
p2230
I2
sVshom
p2231
I3
sVfayt
p2232
I2
sVruks
p2233
I4
sVkrim
p2234
I1
sVasit
p2235
I1
sVpatt
p2236
I2
sVkaml
p2237
I3
sVpate
p2238
I14
sVjati
p2239
I2
sVates
p2240
I1
sVajit
p2241
I3
sVbhus
p2242
I8
sVjame
p2243
I2
sVbhum
p2244
I7
sVrekh
p2245
I2
sVajin
p2246
I4
sVhima
p2247
I4
sVvipu
p2248
I3
sVlove
p2249
I1
sVgosa
p2250
I2
sVgomt
p2251
I2
sVdnya
p2252
I6
sVprem
p2253
I3
sVavan
p2254
I3
sVkhan
p2255
I3
sVpree
p2256
I5
sVasta
p2257
I2
sVmaya
p2258
I3
sVkhar
p2259
I1
sVjiva
p2260
I1
sVswet
p2261
I4
sVapar
p2262
I8
sVprer
p2263
I3
sVrich
p2264
I2
sVmira
p2265
I2
sVkoma
p2266
I11
sVuddh
p2267
I1
sVmoks
p2268
I2
sVomsa
p2269
I2
sVisap
p2270
I1
sVmeen
p2271
I3
sValia
p2272
I1
sVridd
p2273
I14
sValif
p2274
I1
sVsabu
p2275
I1
sVsabi
p2276
I2
sVamru
p2277
I1
sVujja
p2278
I1
sVabcd
p2279
I2
sVkosh
p2280
I1
sVchir
p2281
I4
sVpawa
p2282
I2
sVmehd
p2283
I3
sVsudh
p2284
I2
sVchit
p2285
I2
sVmeha
p2286
I2
sVdaks
p2287
I3
sVchin
p2288
I14
sVmeht
p2289
I4
sVmehu
p2290
I11
sVshai
p2291
I7
sVpink
p2292
I3
sVdhim
p2293
I2
sVpuru
p2294
I2
sVguru
p2295
I1
sVreva
p2296
I1
sVsaty
p2297
I5
sVpina
p2298
I2
sVpura
p2299
I1
sVsath
p2300
I2
sVsati
p2301
I3
sVasmi
p2302
I3
sVkaja
p2303
I4
sVnara
p2304
I4
sVshar
p2305
I5
sVadit
p2306
I3
sVdatt
p2307
I3
sVlohi
p2308
I2
sVsuch
p2309
I2
sVarch
p2310
I14
sVloha
p2311
I2
sVpurv
p2312
I2
sVdeva
p2313
I5
sVvrun
p2314
I2
sVgaja
p2315
I3
sVvikr
p2316
I14
sVdevi
p2317
I2
sVsuje
p2318
I1
sVbina
p2319
I1
sVsuja
p2320
I4
sValpa
p2321
I2
sVaash
p2322
I2
sVjaim
p2323
I1
sValpe
p2324
I6
sVvrus
p2325
I7
sVamit
p2326
I25
sVdevy
p2327
I1
sVvika
p2328
I4
sVsama
p2329
I3
sVvaru
p2330
I2
sVvars
p2331
I7
sVhely
p2332
I1
sVbhag
p2333
I8
sVpanc
p2334
I3
sVbrij
p2335
I2
sVbrin
p2336
I1
sVpand
p2337
I1
sVpank
p2338
I15
sVpanj
p2339
I2
sVcham
p2340
I2
sVketu
p2341
I1
sVnimi
p2342
I2
sVpras
p2343
I29
sVrike
p2344
I2
sVprat
p2345
I24
sVavia
p2346
I2
sVavin
p2347
I2
sVnime
p2348
I1
sVriki
p2349
I2
sVlate
p2350
I5
sVprac
p2351
I8
sVprab
p2352
I2
sVlata
p2353
I2
sVprad
p2354
I9
sVprag
p2355
I1
sVpraf
p2356
I1
sVprak
p2357
I7
sVpraj
p2358
I8
sVpram
p2359
I9
sVpran
p2360
I13
sVanil
p2361
I8
sVanim
p2362
I2
sVanik
p2363
I2
sVrakh
p2364
I1
sVrake
p2365
I7
sVkish
p2366
I1
sVdoct
p2367
I2
sVnare
p2368
I3
sVmrun
p2369
I11
sVsamr
p2370
I2
sVanit
p2371
I5
sVdiks
p2372
I5
sVanir
p2373
I1
sVmrug
p2374
I2
sVnama
p2375
I2
sVsamp
p2376
I2
sVname
p2377
I2
sVzain
p2378
I3
sVnami
p2379
I3
sNI65
sVseja
p2380
I3
sVnamr
p2381
I3
sVjuhi
p2382
I3
sVsidd
p2383
I6
sVurvi
p2384
I2
sVruti
p2385
I1
sVnisa
p2386
I2
sVhari
p2387
I5
sVkand
p2388
I2
sVhard
p2389
I16
sVjign
p2390
I7
sVkanc
p2391
I3
sVkana
p2392
I1
sVdush
p2393
I2
sVanay
p2394
I1
sVhars
p2395
I14
sVabha
p2396
I2
sVjalp
p2397
I1
sVmiss
p2398
I3
sVdime
p2399
I1
sVabhi
p2400
I22
sVruch
p2401
I5
sVnite
p2402
I1
sVniti
p2403
I20
sVnith
p2404
I2
sVshus
p2405
I1
sVkaus
p2406
I7
sVajay
p2407
I11
sVshub
p2408
I4
sVbala
p2409
I1
sVhuls
p2410
I1
sVsilv
p2411
I2
sVange
p2412
I2
sVyesh
p2413
I6
sVsahi
p2414
I6
sVpuni
p2415
I2
sVbija
p2416
I2
sVkuna
p2417
I9
sVture
p2418
I2
sVsuvi
p2419
I1
sVdine
p2420
I10
sVnivr
p2421
I1
sVrana
p2422
I3
sVdivy
p2423
I6
sVjwal
p2424
I2
sVbhal
p2425
I2
sVnach
p2426
I2
sVdink
p2427
I1
sVsach
p2428
I37
sVbhak
p2429
I4
sVranj
p2430
I2
sVbhat
p2431
I4
sVbhav
p2432
I22
sVbhar
p2433
I12
sVsuyo
p2434
I2
sVvino
p2435
I8
sVrona
p2436
I2
sVmamt
p2437
I5
sVanur
p2438
I8
sVakan
p2439
I1
sVpare
p2440
I8
sVpara
p2441
I8
sVparm
p2442
I8
sVpari
p2443
I3
sVpart
p2444
I5
sVpars
p2445
I2
sVanuj
p2446
I6
sVakas
p2447
I1
sVthan
p2448
I2
sVkhya
p2449
I1
sVkina
p2450
I1
sVkinn
p2451
I2
sVdevd
p2452
I1
sVkinj
p2453
I11
sVmuba
p2454
I1
sVvije
p2455
I2
sVvija
p2456
I11
sVneet
p2457
I2
sVmina
p2458
I5
sVanup
p2459
I4
sVrenn
p2460
I2
sVneel
p2461
I4
sVneem
p2462
I2
sVkara
p2463
I6
sVseem
p2464
I6
sVkari
p2465
I1
sVsula
p2466
I2
sVloke
p2467
I2
sVyuva
p2468
I1
sVtaks
p2469
I2
sVteja
p2470
I14
sVatij
p2471
I1
sVkaya
p2472
I2
sVyuvr
p2473
I8
sVatis
p2474
I1
sVdsfk
p2475
I1
sVtrus
p2476
I2
sVjaik
p2477
I1
sVsure
p2478
I7
sVjain
p2479
I2
sVsura
p2480
I2
sVomes
p2481
I2
sVamar
p2482
I2
sVvish
p2483
I21
sVajee
p2484
I3
sVsury
p2485
I1
sVniha
p2486
I2
sVsuji
p2487
I1
sVpuja
p2488
I6
sVaksh
p2489
I15
sVdeni
p2490
I2
sVsohi
p2491
I2
sVdpen
p2492
I1
sVsoha
p2493
I1
sVrupe
p2494
I11
sVraji
p2495
I1
sVrajk
p2496
I1
sVrajn
p2497
I3
sVsaga
p2498
I27
sVraje
p2499
I13
sVrajd
p2500
I1
sVnand
p2501
I5
sVpriy
p2502
I46
sVthak
p2503
I4
sVshob
p2504
I2
sVnage
p2505
I1
sVbehr
p2506
I2
sVnaga
p2507
I1
sVraju
p2508
I2
sVprit
p2509
I9
sVshon
p2510
I3
sVkush
p2511
I1
sVarpi
p2512
I2
sVrasn
p2513
I1
sVrash
p2514
I2
sVrasi
p2515
I1
sVtapa
p2516
I1
sVkesh
p2517
I2
sVupas
p2518
I2
sVforu
p2519
I2
sVmuga
p2520
I2
sVtirt
p2521
I1
sVbipi
p2522
I2
sVkaka
p2523
I1
sVabba
p2524
I1
sVluke
p2525
I1
sVpava
p2526
I2
sVjazz
p2527
I2
sVheta
p2528
I14
sVmuna
p2529
I3
sVgeet
p2530
I1
sVsila
p2531
I1
sVyukt
p2532
I1
sVraja
p2533
I3
sVdhir
p2534
I4
sVniza
p2535
I1
sVsaur
p2536
I7
sVnish
p2537
I20
sVjasm
p2538
I3
sVlali
p2539
I5
sVsomn
p2540
I3
sVnaus
p2541
I2
sVgaur
p2542
I6
sVruna
p2543
I2
sVsupr
p2544
I12
sVsaum
p2545
I2
sVvini
p2546
I2
sVbles
p2547
I1
sVvina
p2548
I6
sVpadh
p2549
I1
sVyusu
p2550
I1
sVjada
p2551
I3
sVaysh
p2552
I1
sVbaro
p2553
I2
sVyaxi
p2554
I1
sVsaif
p2555
I2
sVyasi
p2556
I1
sVyash
p2557
I5
sVrits
p2558
I1
sVrupa
p2559
I14
sVradh
p2560
I10
sVjite
p2561
I8
sVambi
p2562
I2
sVriti
p2563
I2
sVatul
p2564
I12
sVrite
p2565
I3
sVishi
p2566
I1
sVdhru
p2567
I12
sVamee
p2568
I2
sVsola
p2569
I2
sVamey
p2570
I1
sVvraj
p2571
I2
sVmans
p2572
I6
sVramy
p2573
I1
sVmona
p2574
I2
sVnila
p2575
I9
sVprav
p2576
I11
sVketa
p2577
I1
sVramr
p2578
I1
sVmoni
p2579
I6
sVmana
p2580
I6
sVanoo
p2581
I2
sVhite
p2582
I17
sVutpa
p2583
I1
sVmang
p2584
I5
sVmani
p2585
I19
sVmanj
p2586
I1
sVmano
p2587
I15
sVvaid
p2588
I3
sVvaib
p2589
I12
sVjaya
p2590
I2
sVjayd
p2591
I5
sVjaye
p2592
I4
sVnaku
p2593
I2
sVravi
p2594
I20
sVniya
p2595
I2
sVpria
p2596
I1
sVvais
p2597
I14
sVshin
p2598
I1
sVjays
p2599
I10
sVrava
p2600
I1
sVgohi
p2601
I3
sVsage
p2602
I1
sVsari
p2603
I6
sVmara
p2604
I4
sVmaro
p2605
I1
sVsneh
p2606
I26
sVhina
p2607
I6
sVsard
p2608
I2
sVshra
p2609
I9
sVsesi
p2610
I2
sVnira
p2611
I16
sVdhav
p2612
I21
sVdixi
p2613
I3
sVneha
p2614
I17
sVsavi
p2615
I2
sVnaya
p2616
I2
sVmiki
p2617
I1
sVdave
p2618
I2
sVmone
p2619
I2
sVvand
p2620
I2
sVdhee
p2621
I2
sVkote
p2622
I2
sVfirs
p2623
I2
sVsuha
p2624
I2
sVtanm
p2625
I1
sVapek
p2626
I1
sVvagh
p2627
I2
sVtana
p2628
I1
sVkavi
p2629
I3
sVtanv
p2630
I3
sVrahu
p2631
I26
sVsush
p2632
I3
sVuday
p2633
I5
sVyati
p2634
I1
sVdhwa
p2635
I1
sVnile
p2636
I18
sVheny
p2637
I2
sVjyos
p2638
I2
sVmegh
p2639
I9
sVvira
p2640
I4
sVvora
p2641
I1
sVjyot
p2642
I6
sVhone
p2643
I2
sVshas
p2644
I8
sVsami
p2645
I8
sVbhoo
p2646
I3
sVbans
p2647
I1
sVrutu
p2648
I2
sVnike
p2649
I5
sVnikh
p2650
I5
sVniki
p2651
I12
sVsame
p2652
I3
sVgaut
p2653
I7
sVniku
p2654
I1
sVmakw
p2655
I2
sVmand
p2656
I5
sVshah
p2657
I11
sVniky
p2658
I2
sVsumu
p2659
I2
sVshal
p2660
I3
sVsham
p2661
I2
sVsada
p2662
I2
sVhani
p2663
I1
sVbalk
p2664
I1
sVsukh
p2665
I1
sVsadh
p2666
I2
sVanki
p2667
I17
sVbald
p2668
I1
sVkeyu
p2669
I5
sVdimp
p2670
I1
sVrais
p2671
I1
sVanku
p2672
I6
sVrame
p2673
I4
sVrain
p2674
I3
sVonka
p2675
I1
sVdadh
p2676
I2
sVtasn
p2677
I2
sVvear
p2678
I1
sVrome
p2679
I1
sVakki
p2680
I2
sVutta
p2681
I2
sVrush
p2682
I4
sVromi
p2683
I2
sVdosh
p2684
I2
sVdarm
p2685
I1
sVkali
p2686
I2
sVkalp
p2687
I2
sVresh
p2688
I7
sVkirt
p2689
I3
sVvidh
p2690
I6
sVrosh
p2691
I9
sVjosh
p2692
I1
sVdhan
p2693
I4
sVraks
p2694
I2
sVdhar
p2695
I13
sVvidy
p2696
I4
sVnath
p2697
I2
sVdhaw
p2698
I2
sVtaas
p2699
I2
sVwalm
p2700
I2
sVnirm
p2701
I2
sVniri
p2702
I1
sVmaye
p2703
I3
sVvima
p2704
I2
sVgris
p2705
I1
sVarav
p2706
I1
sVgovi
p2707
I2
sVfate
p2708
I2
sVdars
p2709
I10
sVfati
p2710
I1
sVdarp
p2711
I2
sVshwe
p2712
I23
sVmayu
p2713
I12
sVapur
p2714
I3
sVkash
p2715
I1
sVsumi
p2716
I4
sVkhus
p2717
I15
sVheer
p2718
I2
sVamol
p2719
I14
sVkula
p2720
I1
sVkulb
p2721
I1
sVkeki
p2722
I2
sVheen
p2723
I2
sVheem
p2724
I1
sVvats
p2725
I1
sVshee
p2726
I9
sVmohs
p2727
I1
sVlipi
p2728
I2
sVhuss
p2729
I3
sVshek
p2730
I2
sVgajj
p2731
I1
sVmoha
p2732
I1
sVpala
p2733
I4
sVmurt
p2734
I3
sVmohi
p2735
I9
sVavni
p2736
I1
sVakht
p2737
I3
sVrohi
p2738
I21
sVrina
p2739
I3
sVrohe
p2740
I2
sVmedh
p2741
I1
sVroha
p2742
I16
sVumes
p2743
I1
sVdiga
p2744
I1
sVanni
p2745
I1
sVvris
p2746
I1
sVakhi
p2747
I2
sVvedi
p2748
I1
sVjave
p2749
I1
sVstef
p2750
I4
sVmitt
p2751
I1
sVnidh
p2752
I8
sVreza
p2753
I2
sVmits
p2754
I2
sVhosh
p2755
I2
sVsrik
p2756
I2
sVnafi
p2757
I1
sVsaki
p2758
I2
sVmite
p2759
I1
sVmita
p2760
I1
sVashl
p2761
I1
sVusha
p2762
I1
sVasho
p2763
I3
sVashi
p2764
I11
sVashk
p2765
I1
sVsake
p2766
I1
sVchot
p2767
I1
sVashv
p2768
I1
sVashw
p2769
I9
sVshre
p2770
I11
sVsara
p2771
I5
sVmuku
p2772
I1
sVghan
p2773
I3
sVmihi
p2774
I6
sVshri
p2775
I14
sVaesh
p2776
I1
sVshru
p2777
I5
sVjiga
p2778
I3
sVbeen
p2779
I3
sVmuke
p2780
I1
sVpaya
p2781
I8
sVkapi
p2782
I1
sVsubh
p2783
I5
sVaary
p2784
I4
sVshya
p2785
I1
sVjina
p2786
I7
sVtama
p2787
I1
sVaaru
p2788
I1
sVsmit
p2789
I11
sVjanh
p2790
I2
sVjank
p2791
I4
sVaaro
p2792
I1
sVrega
p2793
I1
sVviha
p2794
I1
sVnavj
p2795
I1
sVomka
p2796
I2
sVpiyu
p2797
I4
sVtrup
p2798
I6
sVfora
p2799
I1
sVjaga
p2800
I3
sVdipt
p2801
I2
sVjagd
p2802
I1
sVdula
p2803
I1
sVgora
p2804
I1
sVanee
p2805
I3
sVdipm
p2806
I2
sVdipa
p2807
I9
sVnavn
p2808
I2
sVdipe
p2809
I3
sVreem
p2810
I2
sVlina
p2811
I1
sVhire
p2812
I8
sVsaja
p2813
I2
sVvive
p2814
I8
sVhira
p2815
I6
sVsaje
p2816
I1
sVragh
p2817
I1
sVsalo
p2818
I1
sVmadh
p2819
I7
sVzari
p2820
I1
sVarna
p2821
I1
sVhele
p2822
I2
sVsupa
p2823
I1
sVmore
p2824
I1
sVpall
p2825
I6
sVyagn
p2826
I3
sVanja
p2827
I2
sVjhan
p2828
I3
sVdili
p2829
I2
sVrahe
p2830
I3
sVdurg
p2831
I1
sVrahi
p2832
I4
sVchai
p2833
I7
sVchan
p2834
I10
sVdeep
p2835
I29
sVuman
p2836
I2
sVchar
p2837
I3
sVanju
p2838
I3
sVshir
p2839
I3
sVzens
p2840
I1
sVshiv
p2841
I9
sVtrip
p2842
I1
sVshit
p2843
I2
sVyoge
p2844
I10
sVjigi
p2845
I1
sVyogi
p2846
I3
sVkrun
p2847
I2
sVkrup
p2848
I7
sVkrus
p2849
I2
sVkrut
p2850
I9
sVleen
p2851
I2
sVkira
p2852
I15
sVtaru
p2853
I1
sVstav
p2854
I1
sVpooj
p2855
I23
sVpoon
p2856
I1
sVpapp
p2857
I2
sVaaka
p2858
I1
sVmaso
p2859
I2
sVvick
p2860
I2
sVsalu
p2861
I1
sVaakr
p2862
I2
sVkail
p2863
I2
sVshil
p2864
I10
sVpush
p2865
I1
stp2866
Rp2867
sg46
I2323
sg47
F4258.5
sbs(g10
g15
tp2868
g0
(g17
g2
Ntp2869
Rp2870
(dp2871
g21
F0.5
sg22
I4571
sg23
g24
((dp2872
NI717
sg26
I1073
sg27
I28
sg28
I38
sg29
I185
sg55
I14
sg1576
I18
sg30
I417
sg31
I340
sg32
I127
sg33
I60
sg34
I129
sg35
I210
sg56
I11
sg36
I374
sg1577
I10
sg37
I64
sg38
I39
sg39
I210
sg40
I61
sg41
I213
sg42
I73
sg43
I102
sg1579
I58
stp2873
Rp2874
sg46
I25
sg47
F4583.5
sbs(g9
g48
tp2875
g0
(g17
g2
Ntp2876
Rp2877
(dp2878
g21
F0.5
sg22
I3097
sg23
g24
((dp2879
g26
I322
sg54
I65
sg27
I90
sg28
I4
sg29
I197
sg55
I52
sg1576
I12
sg30
I5
sg31
I127
sg32
I162
sg33
I111
sg34
I237
sg35
I25
sg56
I7
sg36
I207
sg37
I336
sg38
I565
sg39
I291
sg40
I18
sg41
I53
sg1578
I2
sg42
I163
sg43
I41
sg1579
I5
stp2880
Rp2881
sg46
I26
sg47
F3110.0
sbs(g10
g48
tp2882
g0
(g17
g2
Ntp2883
Rp2884
(dp2885
g21
F0.5
sg22
I4571
sg23
g24
((dp2886
g26
I742
sg54
I36
sg27
I86
sg28
I14
sg29
I147
sg55
I104
sg1576
I69
sg30
I74
sg31
I105
sg32
I182
sg33
I123
sg34
I428
sg35
I47
sg56
I4
sg36
I308
sg1577
I4
sg37
I333
sg38
I967
sg39
I423
sg40
I34
sg41
I69
sg1578
I11
sg42
I159
sg43
I44
sVx
p2887
I3
sg1579
I55
stp2888
Rp2889
sg46
I26
sg47
F4584.0
sbs(g10
S'len_name'
p2890
tp2891
g0
(g17
g2
Ntp2892
Rp2893
(dp2894
g21
F0.5
sg22
I4571
sg23
g24
((dp2895
I1
I50
sI2
I65
sI3
I78
sI4
I524
sI5
I1296
sI6
I1251
sI7
I716
sI8
I396
sI9
I104
sI10
I37
sI11
I21
sI12
I12
sI13
I8
sI14
I4
sI15
I6
sI16
I1
sI17
I1
sI18
I1
stp2896
Rp2897
sg46
I19
sg47
F4580.5
sbs(g11
g1429
tp2898
g0
(g17
g2
Ntp2899
Rp2900
(dp2901
g21
F0.5
sg22
I1461
sg23
g24
((dp2902
Vndhu
p2903
I1
sVbhan
p2904
I2
sVarup
p2905
I1
sVshri
p2906
I2
sVrzya
p2907
I2
sVhree
p2908
I9
sVresh
p2909
I1
sVanti
p2910
I2
sVlesh
p2911
I2
sVgshu
p2912
I1
sVdran
p2913
I1
sVojit
p2914
I6
sVdeep
p2915
I10
sVayan
p2916
I1
sVanda
p2917
I2
sVnkar
p2918
I7
sVmmed
p2919
I1
sVnath
p2920
I5
sVandy
p2921
I1
sVeena
p2922
I1
sVodra
p2923
I2
sVkhar
p2924
I1
sVsesh
p2925
I1
sVhini
p2926
I2
sVntan
p2927
I2
sVjana
p2928
I1
sVmmad
p2929
I2
sVuvra
p2930
I1
sVanil
p2931
I2
sVyoti
p2932
I4
sVodip
p2933
I1
sVmira
p2934
I2
sVndra
p2935
I1
sVlino
p2936
I2
sVnshu
p2937
I3
sVwita
p2938
I2
sVdita
p2939
I7
sVchal
p2940
I1
sVlini
p2941
I2
sVkshi
p2942
I2
sValya
p2943
I3
sVaran
p2944
I4
sVnata
p2945
I2
sVlina
p2946
I4
sVhiki
p2947
I2
sVlika
p2948
I3
sVanta
p2949
I3
sVveer
p2950
I2
sVtani
p2951
I2
sVstha
p2952
I9
sVathi
p2953
I2
sNI1087
sVarna
p2954
I7
sVddha
p2955
I1
sVroto
p2956
I1
sVriya
p2957
I3
sVtika
p2958
I2
sVtanu
p2959
I1
sVipan
p2960
I2
sVnava
p2961
I1
sVadip
p2962
I2
sVngar
p2963
I3
sVrata
p2964
I5
sVhari
p2965
I8
sVneet
p2966
I1
sVibur
p2967
I1
sVshek
p2968
I5
sVhara
p2969
I2
sVneel
p2970
I2
sVtosh
p2971
I1
sVumar
p2972
I4
sVrila
p2973
I2
sVshis
p2974
I3
sVeeta
p2975
I2
sVrati
p2976
I2
sVbhro
p2977
I1
sVabha
p2978
I2
sVrina
p2979
I1
sVnjit
p2980
I8
sVhish
p2981
I2
sVatim
p2982
I2
sVeepa
p2983
I1
sVnita
p2984
I4
sVakha
p2985
I1
sVjita
p2986
I2
sVleen
p2987
I2
sVshan
p2988
I1
sVakhi
p2989
I1
sVrita
p2990
I1
sViraj
p2991
I1
sVanka
p2992
I15
sVendu
p2993
I8
sVwati
p2994
I2
sVkhan
p2995
I2
sVekha
p2996
I2
sVaman
p2997
I2
sVhury
p2998
I1
sVsree
p2999
I8
sVrtha
p3000
I2
sVidul
p3001
I1
sVrshi
p3002
I4
sVshna
p3003
I2
sVajay
p3004
I1
sVachi
p3005
I1
sVlisa
p3006
I10
sVasan
p3007
I3
sVrman
p3008
I1
sVaita
p3009
I2
sVamay
p3010
I1
sVrban
p3011
I1
sVasee
p3012
I1
sVmita
p3013
I19
sVadev
p3014
I2
sVajit
p3015
I28
sVtpol
p3016
I2
sVndan
p3017
I1
sVjeet
p3018
I3
sVasha
p3019
I3
sVhita
p3020
I1
sVhmal
p3021
I1
sVeeti
p3022
I2
sVinda
p3023
I2
sVnjan
p3024
I4
sVpita
p3025
I2
sVtali
p3026
I1
sVnaaz
p3027
I2
sVrima
p3028
I5
stp3029
Rp3030
sg46
I647
sg47
F1784.5
sbs(g9
g15
tp3031
g0
(g17
g2
Ntp3032
Rp3033
(dp3034
g21
F0.5
sg22
I3097
sg23
g24
((dp3035
NI274
sg26
I662
sg27
I6
sg28
I59
sg29
I43
sg55
I28
sg1576
I1
sg30
I372
sg31
I366
sg32
I79
sg33
I51
sg34
I44
sg35
I336
sg56
I4
sg36
I248
sg37
I39
sg38
I27
sg39
I146
sg40
I20
sg41
I184
sg42
I50
sg43
I53
sg1579
I5
stp3036
Rp3037
sg46
I25
sg47
F3109.5
sbs(g9
g2890
tp3038
g0
(g17
g2
Ntp3039
Rp3040
(dp3041
g21
F0.5
sg22
I3097
sg23
g24
((dp3042
I1
I13
sI2
I11
sI3
I41
sI4
I209
sI5
I850
sI6
I951
sI7
I537
sI8
I305
sI9
I72
sI10
I48
sI11
I30
sI12
I13
sI13
I11
sI14
I1
sI15
I3
sI17
I2
stp3043
Rp3044
sg46
I19
sg47
F3106.5
sbs(g10
g527
tp3045
g0
(g17
g2
Ntp3046
Rp3047
(dp3048
g21
F0.5
sg22
I4571
sg23
g24
((dp3049
Vroh
p3050
I32
sValo
p3051
I4
sValm
p3052
I2
sValk
p3053
I4
sVron
p3054
I1
sVali
p3055
I12
sValf
p3056
I2
sVrob
p3057
I2
sVroc
p3058
I2
sVeja
p3059
I1
sVroy
p3060
I2
sVper
p3061
I3
sValv
p3062
I1
sValt
p3063
I1
sVros
p3064
I3
sVrom
p3065
I3
sVvet
p3066
I1
sVaji
p3067
I11
sVroo
p3068
I1
sVrag
p3069
I8
sVfay
p3070
I2
sVlrf
p3071
I1
sVfar
p3072
I27
sVfat
p3073
I7
sVfai
p3074
I14
sVfal
p3075
I1
sVfaa
p3076
I2
sVdil
p3077
I6
sVdim
p3078
I9
sVfho
p3079
I2
sVgud
p3080
I4
sVdig
p3081
I1
sVgun
p3082
I15
sVupa
p3083
I2
sVgur
p3084
I2
sVdiy
p3085
I4
sVdiv
p3086
I13
sVdip
p3087
I6
sVtee
p3088
I5
sVrra
p3089
I1
sVsuf
p3090
I1
sVnem
p3091
I2
sVabd
p3092
I15
sVsub
p3093
I9
sVneh
p3094
I59
sVabh
p3095
I36
sVsun
p3096
I46
sVsum
p3097
I22
sVnee
p3098
I24
sVkus
p3099
I4
sVsuj
p3100
I3
sVsuh
p3101
I6
sVsuv
p3102
I1
sVkum
p3103
I14
sVkul
p3104
I3
sVsus
p3105
I7
sVsur
p3106
I16
sVsup
p3107
I5
sVanc
p3108
I1
sVmee
p3109
I9
sVmeg
p3110
I13
sVlee
p3111
I1
sVlek
p3112
I2
sVmeh
p3113
I9
sVmet
p3114
I2
sVmer
p3115
I2
sVaks
p3116
I9
sVakr
p3117
I5
sVbhu
p3118
I8
sVjay
p3119
I6
sVrdx
p3120
I2
sVdri
p3121
I1
sVakh
p3122
I9
sVakm
p3123
I1
sVakb
p3124
I4
sVaka
p3125
I13
sVekt
p3126
I3
sVdre
p3127
I1
sVvib
p3128
I6
sVvic
p3129
I8
sVvid
p3130
I3
sVvij
p3131
I9
sVvik
p3132
I29
sVapp
p3133
I3
sVvii
p3134
I1
sVvin
p3135
I14
sVuza
p3136
I1
sVvim
p3137
I4
sVvir
p3138
I2
sVvis
p3139
I14
sVvip
p3140
I7
sVviv
p3141
I16
sVapo
p3142
I1
sVbri
p3143
I4
sVapa
p3144
I5
sVbra
p3145
I4
sVape
p3146
I2
sVcha
p3147
I23
sVayo
p3148
I2
sVche
p3149
I2
sVaye
p3150
I16
sVchi
p3151
I10
sVfem
p3152
I3
sVaya
p3153
I3
sVush
p3154
I1
sVfer
p3155
I2
sVasm
p3156
I7
sVzia
p3157
I8
sVzin
p3158
I2
sVpus
p3159
I6
sVaje
p3160
I2
sVdep
p3161
I1
sVdev
p3162
I10
sVdel
p3163
I1
sVric
p3164
I9
sVkri
p3165
I19
sVibr
p3166
I3
sVdee
p3167
I50
sVtau
p3168
I5
sVsri
p3169
I1
sVtab
p3170
I3
sVtar
p3171
I13
sVtas
p3172
I2
sVavd
p3173
I1
sVspn
p3174
I1
sVtal
p3175
I2
sVtam
p3176
I1
sVtan
p3177
I19
sVyuv
p3178
I3
sVtah
p3179
I4
sVtai
p3180
I1
sVtaj
p3181
I1
sVena
p3182
I2
sVafd
p3183
I1
sVhoo
p3184
I2
sVaff
p3185
I2
sVrya
p3186
I1
sVsib
p3187
I1
sVish
p3188
I12
sVafz
p3189
I2
sVsid
p3190
I7
sVsik
p3191
I2
sVsin
p3192
I1
sVsim
p3193
I9
sVafs
p3194
I3
sVmaq
p3195
I2
sVpap
p3196
I1
sVmar
p3197
I8
sVmat
p3198
I4
sVlak
p3199
I5
sVmay
p3200
I12
sVsni
p3201
I1
sVmaa
p3202
I2
sVlax
p3203
I4
sVmad
p3204
I12
sVmaf
p3205
I1
sVlat
p3206
I9
sVmah
p3207
I13
sVmak
p3208
I3
sVmam
p3209
I2
sVmal
p3210
I3
sVman
p3211
I62
sVafe
p3212
I1
sVgho
p3213
I1
sVghj
p3214
I1
sVzeb
p3215
I4
sVzee
p3216
I6
sVity
p3217
I2
sVfir
p3218
I3
sVank
p3219
I46
sVfiz
p3220
I1
sVcla
p3221
I1
sVdya
p3222
I1
sVjit
p3223
I14
sVimr
p3224
I21
sVjis
p3225
I1
sVjiy
p3226
I5
sVtri
p3227
I1
sVnoo
p3228
I8
sVdan
p3229
I4
sVdin
p3230
I7
sVdav
p3231
I1
sVdar
p3232
I2
sVbar
p3233
I4
sVnov
p3234
I2
sVahm
p3235
I6
sVshu
p3236
I14
sVift
p3237
I1
sVjun
p3238
I2
sVdik
p3239
I4
sNI115
sViff
p3240
I3
sVafr
p3241
I14
sVnih
p3242
I3
sVsne
p3243
I9
sVgul
p3244
I6
sVanw
p3245
I2
sVgol
p3246
I2
sVrey
p3247
I1
sVsye
p3248
I41
sVres
p3249
I4
sVrew
p3250
I2
sVrek
p3251
I5
sVreh
p3252
I10
sVren
p3253
I4
sVsmi
p3254
I1
sVaja
p3255
I12
sVgow
p3256
I2
sVgov
p3257
I1
sVgop
p3258
I5
sVree
p3259
I11
sVpul
p3260
I1
sVpun
p3261
I5
sVqur
p3262
I2
sVpuj
p3263
I1
sVast
p3264
I1
sVasa
p3265
I1
sVasg
p3266
I1
sVasi
p3267
I5
sVash
p3268
I39
sVpur
p3269
I3
sVasl
p3270
I4
sVate
p3271
I3
sVyus
p3272
I4
sVath
p3273
I2
sVist
p3274
I1
sVyuk
p3275
I3
sVatu
p3276
I7
sVyun
p3277
I2
sVlay
p3278
I1
sVzak
p3279
I4
sVzah
p3280
I8
sVzai
p3281
I1
sVmit
p3282
I4
sVmai
p3283
I2
sVars
p3284
I8
sVzay
p3285
I1
sVart
p3286
I2
sVzar
p3287
I7
sVlav
p3288
I1
sVkom
p3289
I2
sVtos
p3290
I4
sVjee
p3291
I4
sVjen
p3292
I1
sVgya
p3293
I2
sVhum
p3294
I8
sVhem
p3295
I11
sVaae
p3296
I2
sVaad
p3297
I2
sVaaa
p3298
I1
sVaam
p3299
I1
sVaal
p3300
I4
sVbea
p3301
I1
sVaai
p3302
I1
sVaak
p3303
I7
sVbee
p3304
I1
sVstu
p3305
I2
sVaas
p3306
I10
sVaar
p3307
I20
sVaay
p3308
I3
sVraf
p3309
I4
sVane
p3310
I3
sVrad
p3311
I4
sVsah
p3312
I14
sVpra
p3313
I78
sVrac
p3314
I3
sVsam
p3315
I31
sVraa
p3316
I1
sVsac
p3317
I13
sVsab
p3318
I18
sVsaa
p3319
I1
sVram
p3320
I9
sVpri
p3321
I75
sVani
p3322
I23
sVanj
p3323
I25
sVrai
p3324
I3
sVrav
p3325
I10
sVanu
p3326
I40
sVsay
p3327
I4
sVrau
p3328
I4
sVras
p3329
I13
sVans
p3330
I18
sVsar
p3331
I7
sVsaq
p3332
I1
sVsap
p3333
I8
sVraz
p3334
I4
sVsav
p3335
I5
sVsau
p3336
I22
sVsat
p3337
I8
sVmin
p3338
I5
sVzoh
p3339
I3
sVzor
p3340
I1
sVlip
p3341
I1
sVzoy
p3342
I6
sVmis
p3343
I11
sVmir
p3344
I1
sVliy
p3345
I2
sVkab
p3346
I1
sVkaa
p3347
I1
sVkaj
p3348
I1
sVkai
p3349
I2
sVkah
p3350
I3
sVkan
p3351
I17
sVkam
p3352
I8
sVkal
p3353
I2
sVkas
p3354
I8
sVkar
p3355
I12
sVabc
p3356
I1
sVkav
p3357
I17
sVkau
p3358
I3
sVkay
p3359
I1
sVnek
p3360
I2
sVdol
p3361
I7
sVdoc
p3362
I1
sVuro
p3363
I2
sVmrs
p3364
I2
sVmri
p3365
I6
sVmra
p3366
I1
sVsul
p3367
I3
sVpku
p3368
I1
sVsuk
p3369
I4
sVnea
p3370
I2
sVati
p3371
I3
sVkun
p3372
I5
sVjav
p3373
I19
sViti
p3374
I2
sVjas
p3375
I5
sVjan
p3376
I2
sVjam
p3377
I5
sVhri
p3378
I1
sVjak
p3379
I1
sVjah
p3380
I4
sVjai
p3381
I3
sVjag
p3382
I3
sVksh
p3383
I2
sVhir
p3384
I1
sVhit
p3385
I1
sVhib
p3386
I4
sVgee
p3387
I5
sVhim
p3388
I13
sVhin
p3389
I4
sVsmr
p3390
I3
sVshr
p3391
I34
sVema
p3392
I2
sVbas
p3393
I2
sVshw
p3394
I29
sVshx
p3395
I1
sVsha
p3396
I173
sVbad
p3397
I1
sVbab
p3398
I2
sVshe
p3399
I31
sVutk
p3400
I4
sVban
p3401
I2
sVshi
p3402
I65
sVaej
p3403
I1
sVsho
p3404
I8
sVarp
p3405
I10
sVset
p3406
I2
sVnuz
p3407
I1
sVaru
p3408
I12
sVarv
p3409
I7
sVary
p3410
I1
sVarz
p3411
I2
sVnup
p3412
I4
sVara
p3413
I4
sVsee
p3414
I13
sVarc
p3415
I4
sVarf
p3416
I1
sVari
p3417
I8
sVarj
p3418
I6
sVarm
p3419
I7
sVaro
p3420
I2
sVmus
p3421
I5
sVmur
p3422
I3
sVirs
p3423
I4
sVmuz
p3424
I3
sVmud
p3425
I4
sVlub
p3426
I9
sVluc
p3427
I2
sVmub
p3428
I4
sVmun
p3429
I7
sVmuh
p3430
I2
sVmuk
p3431
I6
sVmuj
p3432
I2
sVjos
p3433
I1
sVjou
p3434
I1
sVjov
p3435
I2
sVkeh
p3436
I1
sVkee
p3437
I1
sVtus
p3438
I2
sVale
p3439
I5
sVkey
p3440
I1
sVjog
p3441
I1
sVkes
p3442
I1
sVker
p3443
I2
sVilm
p3444
I2
sVili
p3445
I2
sVuni
p3446
I2
sVeti
p3447
I2
sVunn
p3448
I1
sVily
p3449
I1
sVsak
p3450
I9
sVsaj
p3451
I2
sVsai
p3452
I4
sVpoo
p3453
I40
sVrab
p3454
I3
sVana
p3455
I10
sVbho
p3456
I1
sVswa
p3457
I17
sVyat
p3458
I3
sVsal
p3459
I17
sVswe
p3460
I3
sVyas
p3461
I10
sVyam
p3462
I3
sVran
p3463
I14
sVdur
p3464
I3
sVano
p3465
I4
sVgaz
p3466
I4
sVgay
p3467
I3
sVraj
p3468
I57
sVgau
p3469
I38
sVada
p3470
I1
sVgar
p3471
I6
sVrak
p3472
I12
sVrah
p3473
I59
sVsad
p3474
I8
sVfur
p3475
I2
sVsaz
p3476
I3
sVrat
p3477
I2
sVais
p3478
I2
sVaim
p3479
I2
sVsax
p3480
I4
sVaij
p3481
I3
sVami
p3482
I29
sVriz
p3483
I5
sVriy
p3484
I8
sVrit
p3485
I34
sVris
p3486
I12
sVrin
p3487
I4
sVavn
p3488
I4
sVrim
p3489
I1
sVavi
p3490
I7
sVrif
p3491
I2
sVava
p3492
I1
sVria
p3493
I2
sVfkh
p3494
I1
sVpar
p3495
I25
sVpas
p3496
I1
sVpat
p3497
I6
sVpav
p3498
I2
sVpaw
p3499
I6
sVpay
p3500
I2
sVdhe
p3501
I7
sVqay
p3502
I2
sVdha
p3503
I5
sVany
p3504
I2
sVama
p3505
I17
sVpad
p3506
I2
sVray
p3507
I5
sVpal
p3508
I18
sVdhr
p3509
I1
sVpan
p3510
I17
sVnik
p3511
I26
sVphi
p3512
I2
sVnil
p3513
I7
sVnim
p3514
I1
sVkir
p3515
I13
sVnig
p3516
I3
sVnid
p3517
I15
sVkim
p3518
I1
sVnir
p3519
I4
sVnis
p3520
I16
sVnip
p3521
I2
sVniv
p3522
I3
sVnit
p3523
I19
sVnag
p3524
I1
sVujj
p3525
I1
sVsan
p3526
I114
sVtha
p3527
I4
sVuzm
p3528
I5
sVadv
p3529
I2
sVhai
p3530
I2
sVamr
p3531
I13
sVham
p3532
I4
sVhan
p3533
I1
sVhaa
p3534
I2
sVhab
p3535
I5
sVhaf
p3536
I6
sVaps
p3537
I1
sVskm
p3538
I1
sVhar
p3539
I16
sVhas
p3540
I6
sVadh
p3541
I1
sVadi
p3542
I17
sVbin
p3543
I3
sVbil
p3544
I2
sVamj
p3545
I1
sVbik
p3546
I2
sVamo
p3547
I1
sVamn
p3548
I2
sVmos
p3549
I3
sVamb
p3550
I4
sVame
p3551
I1
sVmou
p3552
I2
sVmoi
p3553
I2
sVmoh
p3554
I131
sVmon
p3555
I19
sVmom
p3556
I2
sVbit
p3557
I2
sVapu
p3558
I5
sVbis
p3559
I3
sVirf
p3560
I8
sVjyo
p3561
I33
sVbha
p3562
I30
sVsud
p3563
I1
sVumr
p3564
I1
sVfoz
p3565
I1
sVume
p3566
I5
sVuma
p3567
I3
sVumm
p3568
I2
sVpee
p3569
I1
sVesh
p3570
I1
sVruk
p3571
I1
sVruh
p3572
I8
sVrun
p3573
I1
sVrub
p3574
I8
sVruc
p3575
I15
sVhsh
p3576
I1
sVrup
p3577
I1
sVsra
p3578
I2
sVsaf
p3579
I4
sVach
p3580
I2
sVidr
p3581
I1
sVkru
p3582
I1
sVzub
p3583
I1
sVkap
p3584
I9
sVkra
p3585
I2
sVzul
p3586
I3
sVsob
p3587
I2
sVsof
p3588
I3
sVsoh
p3589
I2
sVxyz
p3590
I2
sVsom
p3591
I4
sVsoo
p3592
I2
sVson
p3593
I24
sVahs
p3594
I1
sVsou
p3595
I5
sVvai
p3596
I12
sVvan
p3597
I8
sVgir
p3598
I6
sVwah
p3599
I2
sVaan
p3600
I5
sVlom
p3601
I3
sVhee
p3602
I13
sVlov
p3603
I6
sVvar
p3604
I22
sVvas
p3605
I3
sVhen
p3606
I3
sVwas
p3607
I7
sVwaq
p3608
I2
sVbur
p3609
I2
sVbus
p3610
I6
sVjuh
p3611
I6
sVseh
p3612
I5
sVjul
p3613
I1
sVayu
p3614
I7
sVsdf
p3615
I1
sVbul
p3616
I1
sVaql
p3617
I1
sVazh
p3618
I8
sVazi
p3619
I1
sVazm
p3620
I2
sVaza
p3621
I2
sVaze
p3622
I2
sVutt
p3623
I3
sVazr
p3624
I1
sViqb
p3625
I1
sVpin
p3626
I5
sVmys
p3627
I1
sVkhu
p3628
I8
sVpiy
p3629
I1
sVind
p3630
I8
sVkha
p3631
I9
sVinb
p3632
I2
sVnab
p3633
I1
sVnaa
p3634
I5
sVnaf
p3635
I1
sVpre
p3636
I31
sVnad
p3637
I9
sVyog
p3638
I16
sVnah
p3639
I7
sVnai
p3640
I4
sVnan
p3641
I6
sVnam
p3642
I6
sVnar
p3643
I4
sVnas
p3644
I12
sVnav
p3645
I16
sVnaw
p3646
I2
sVnau
p3647
I10
sVnaz
p3648
I18
sVnay
p3649
I1
sVtia
p3650
I2
sVuba
p3651
I1
sVsve
p3652
I2
sVaga
p3653
I2
stp3654
Rp3655
sg46
I1064
sg47
F5103.0
sbs(g11
g962
tp3656
g0
(g17
g2
Ntp3657
Rp3658
(dp3659
g21
F0.5
sg22
I1461
sg23
g24
((dp3660
Vvi
p3661
I5
sVch
p3662
I17
sVcm
p3663
I1
sVal
p3664
I14
sVca
p3665
I1
sVga
p3666
I7
sVgo
p3667
I9
sVve
p3668
I1
sVpr
p3669
I60
sVla
p3670
I6
sVsm
p3671
I2
sVtu
p3672
I10
sVli
p3673
I2
sVto
p3674
I2
sVlu
p3675
I2
sVav
p3676
I13
sVti
p3677
I2
sVkh
p3678
I3
sVte
p3679
I2
sVpo
p3680
I11
sVta
p3681
I30
sVdh
p3682
I8
sVdi
p3683
I18
sVya
p3684
I2
sVam
p3685
I32
sVde
p3686
I51
sVhu
p3687
I2
sVhi
p3688
I2
sVaf
p3689
I2
sVma
p3690
I46
sVha
p3691
I3
sVis
p3692
I4
sVhe
p3693
I2
sVme
p3694
I5
sVmd
p3695
I20
sVpi
p3696
I8
sVqu
p3697
I2
sVke
p3698
I3
sVut
p3699
I2
sVmo
p3700
I48
sVmi
p3701
I12
sVup
p3702
I2
sNI14
sVnu
p3703
I6
sVmr
p3704
I1
sVmy
p3705
I1
sVva
p3706
I4
sVab
p3707
I19
sVad
p3708
I2
sVag
p3709
I2
sVej
p3710
I2
sViq
p3711
I1
sVze
p3712
I3
sVak
p3713
I3
sVaj
p3714
I3
sVea
p3715
I1
sVza
p3716
I2
sVan
p3717
I58
sVap
p3718
I3
sVas
p3719
I16
sVar
p3720
I57
sVim
p3721
I2
sVat
p3722
I5
sVin
p3723
I11
sVay
p3724
I4
sVzu
p3725
I2
sVes
p3726
I2
sVru
p3727
I22
sVno
p3728
I5
sVpa
p3729
I36
sVne
p3730
I2
sVre
p3731
I7
sVuj
p3732
I3
sVra
p3733
I58
sVro
p3734
I7
sVri
p3735
I22
sVba
p3736
I10
sVwa
p3737
I1
sVni
p3738
I24
sVbo
p3739
I2
sVbh
p3740
I7
sVbi
p3741
I42
sVbu
p3742
I3
sVjo
p3743
I10
sVji
p3744
I3
sVja
p3745
I15
sVka
p3746
I19
sVol
p3747
I2
sVoi
p3748
I4
sVfa
p3749
I5
sVss
p3750
I1
sVsr
p3751
I9
sVki
p3752
I4
sVpu
p3753
I8
sVko
p3754
I5
sVsu
p3755
I124
sVsk
p3756
I8
sVkr
p3757
I5
sVsi
p3758
I2
sVsh
p3759
I72
sVso
p3760
I71
sVsn
p3761
I7
sVku
p3762
I1
sVna
p3763
I14
sVsa
p3764
I115
sVsw
p3765
I7
sVse
p3766
I1
stp3767
Rp3768
sg46
I247
sg47
F1584.5
sbs(g12
S'name_last_two'
p3769
tp3770
g0
(g17
g2
Ntp3771
Rp3772
(dp3773
g21
F0.5
sg22
I1496
sg23
g24
((dp3774
Vod
p3775
I2
sVce
p3776
I5
sVgh
p3777
I6
sVle
p3778
I4
sVty
p3779
I2
sVll
p3780
I1
sVlk
p3781
I1
sVli
p3782
I11
sVav
p3783
I12
sVth
p3784
I8
sVti
p3785
I18
sVta
p3786
I32
sVaj
p3787
I14
sVdh
p3788
I2
sVya
p3789
I6
sVhu
p3790
I7
sVhi
p3791
I21
sVha
p3792
I12
sVma
p3793
I8
sVed
p3794
I1
sVmi
p3795
I2
sNI533
sVur
p3796
I9
sVij
p3797
I1
sVil
p3798
I3
sVva
p3799
I3
sVen
p3800
I25
sVad
p3801
I3
sVek
p3802
I9
sVej
p3803
I1
sVai
p3804
I2
sVvi
p3805
I3
sVak
p3806
I17
sVir
p3807
I12
sVam
p3808
I12
sVal
p3809
I41
sVan
p3810
I21
sVii
p3811
I2
sVap
p3812
I2
sVar
p3813
I5
sVat
p3814
I5
sVin
p3815
I8
sVay
p3816
I3
sVet
p3817
I181
sVev
p3818
I5
sVep
p3819
I91
sVer
p3820
I109
sVni
p3821
I17
sVnk
p3822
I2
sVnn
p3823
I1
sVna
p3824
I7
sVnd
p3825
I6
sVne
p3826
I2
sVra
p3827
I5
sVit
p3828
I37
sVnt
p3829
I12
sVri
p3830
I3
sVru
p3831
I2
sVbh
p3832
I7
sVbu
p3833
I2
sVja
p3834
I3
sVka
p3835
I36
sVkh
p3836
I1
sVkl
p3837
I2
sVsh
p3838
I46
sVot
p3839
I21
sVor
p3840
I1
sVop
p3841
I2
stp3842
Rp3843
sg46
I205
sg47
F1598.5
sbs(g10
g59
tp3844
g0
(g17
g2
Ntp3845
Rp3846
(dp3847
g21
F0.5
sg22
I4571
sg23
g24
((dp3848
Vayus
p3849
I6
sVabhi
p3850
I32
sVsunj
p3851
I1
sVsnir
p3852
I1
sVsuni
p3853
I14
sVsunn
p3854
I24
sVayub
p3855
I1
sVsuna
p3856
I4
sVgows
p3857
I2
sVsund
p3858
I2
sVsune
p3859
I1
sVqure
p3860
I2
sVkumu
p3861
I2
sVbikr
p3862
I2
sVrizw
p3863
I3
sVarim
p3864
I2
sVswal
p3865
I1
sVprin
p3866
I5
sVarif
p3867
I2
sVswat
p3868
I14
sVrizb
p3869
I2
sVtush
p3870
I2
sVswap
p3871
I2
sVkuma
p3872
I12
sVhuma
p3873
I3
sVhume
p3874
I5
sVahma
p3875
I4
sVvasi
p3876
I3
sVahme
p3877
I2
sVrish
p3878
I12
sVdelh
p3879
I1
sVaays
p3880
I1
sVhema
p3881
I10
sVaayu
p3882
I2
sVmoun
p3883
I2
sVjish
p3884
I1
sVunna
p3885
I1
sVmaah
p3886
I2
sVhemr
p3887
I1
sVsony
p3888
I1
sVfala
p3889
I1
sVksha
p3890
I2
sVfurk
p3891
I2
sVsant
p3892
I8
sValma
p3893
I2
sVshoa
p3894
I5
sVmahb
p3895
I1
sVmaha
p3896
I4
sVhris
p3897
I1
sVryan
p3898
I1
sVmahe
p3899
I8
sVsang
p3900
I5
sVsand
p3901
I41
sVsanc
p3902
I2
sVsana
p3903
I16
sVanan
p3904
I5
sVzina
p3905
I2
sVinbi
p3906
I2
sVanam
p3907
I3
sVsanj
p3908
I31
sVrach
p3909
I3
sVsani
p3910
I2
sVchet
p3911
I2
sVnigh
p3912
I3
sVsuhe
p3913
I1
sVhaar
p3914
I2
sVujjw
p3915
I1
sValfi
p3916
I2
sVpasi
p3917
I1
sVsayy
p3918
I2
sVneam
p3919
I2
sVumme
p3920
I2
sVnaim
p3921
I2
sVsaye
p3922
I2
sVasho
p3923
I3
sVritu
p3924
I15
sVsabu
p3925
I3
sVrati
p3926
I2
sVkrit
p3927
I4
sVsapn
p3928
I8
sVgunj
p3929
I15
sVfaya
p3930
I2
sVkris
p3931
I13
sVasif
p3932
I5
sVnanc
p3933
I6
sVmoid
p3934
I1
sVrazi
p3935
I4
sVsabi
p3936
I4
sVsriv
p3937
I1
sVatee
p3938
I3
sVkama
p3939
I5
sVnidh
p3940
I10
sVhash
p3941
I3
sVpatt
p3942
I2
sVnawa
p3943
I2
sVhasa
p3944
I3
sVkaml
p3945
I1
sVkamr
p3946
I2
sVkimi
p3947
I1
sVaali
p3948
I4
sVsimr
p3949
I2
sVyasi
p3950
I1
sVdrea
p3951
I1
sVsing
p3952
I1
sVilma
p3953
I2
sVloma
p3954
I2
sVsaba
p3955
I8
sVlome
p3956
I1
sVajit
p3957
I10
sVbhup
p3958
I4
sVtaiy
p3959
I1
sVziau
p3960
I2
sValta
p3961
I1
sVbhuv
p3962
I2
sVdyan
p3963
I1
sVjame
p3964
I2
sVjama
p3965
I3
sVbhun
p3966
I2
sVdile
p3967
I2
sVrekh
p3968
I5
sVhima
p3969
I13
sVlove
p3970
I6
sVenam
p3971
I1
sVrash
p3972
I11
sVunis
p3973
I2
sVenay
p3974
I1
sVhabe
p3975
I1
sVvipi
p3976
I7
sVprem
p3977
I4
sVsaki
p3978
I5
sVprek
p3979
I1
sVpree
p3980
I22
sVfozi
p3981
I1
sVswee
p3982
I1
sVbush
p3983
I6
sVkhad
p3984
I1
sVupas
p3985
I2
sVperv
p3986
I3
sVzora
p3987
I1
sVarme
p3988
I1
sVswet
p3989
I2
sVapar
p3990
I5
sVprer
p3991
I4
sVteen
p3992
I5
sVmune
p3993
I2
sVmush
p3994
I1
sVrobi
p3995
I2
sVmusl
p3996
I1
sVsudh
p3997
I1
sVmusa
p3998
I3
sVbabl
p3999
I1
sVkoma
p4000
I2
sVbabr
p4001
I1
sVmoin
p4002
I1
sVaffa
p4003
I2
sVmuza
p4004
I3
sVmeen
p4005
I9
sVtauf
p4006
I3
sVamri
p4007
I7
sValin
p4008
I1
sVmalv
p4009
I1
sVamre
p4010
I4
sVsoum
p4011
I1
sVamra
p4012
I2
sVubai
p4013
I1
sVtaus
p4014
I2
sVsour
p4015
I4
sVsabn
p4016
I1
sVzeen
p4017
I6
sVmali
p4018
I1
sVroop
p4019
I1
sVsika
p4020
I1
sValis
p4021
I3
sVshiy
p4022
I2
sVsonu
p4023
I2
sVmala
p4024
I1
sVheen
p4025
I13
sVsona
p4026
I16
sVchir
p4027
I3
sVpawa
p4028
I6
sVmehe
p4029
I1
sVmehb
p4030
I4
sVchit
p4031
I2
sVsahi
p4032
I13
sVaaaa
p4033
I1
sVchin
p4034
I5
sVruhi
p4035
I6
sVmehr
p4036
I4
sVsikh
p4037
I1
sVpink
p4038
I5
sVvibh
p4039
I6
sVsatv
p4040
I4
sVguru
p4041
I2
sVlrfa
p4042
I1
sVsoma
p4043
I1
sVarzo
p4044
I2
sVasma
p4045
I6
sVsate
p4046
I1
sVsoni
p4047
I5
sVnare
p4048
I3
sViliy
p4049
I2
sVnipu
p4050
I2
sVkaja
p4051
I1
sVnara
p4052
I1
sVpurn
p4053
I3
sVadit
p4054
I12
sVsvet
p4055
I2
sVniki
p4056
I10
sVkari
p4057
I6
sVfarh
p4058
I23
sVadie
p4059
I2
sVdivy
p4060
I13
sVshav
p4061
I1
sVarch
p4062
I4
sVmuha
p4063
I2
sVamin
p4064
I2
sVbini
p4065
I1
sVdeve
p4066
I5
sVdevd
p4067
I1
sVbine
p4068
I1
sVriya
p4069
I8
sVdevi
p4070
I1
sVsuje
p4071
I2
sVmera
p4072
I2
sVdevn
p4073
I2
sVjove
p4074
I2
sVaast
p4075
I1
sVaasi
p4076
I1
sVaash
p4077
I3
sVjail
p4078
I1
sVaasm
p4079
I5
sVsaty
p4080
I2
sVamit
p4081
I26
sVvika
p4082
I21
sVnikh
p4083
I16
sVarin
p4084
I4
sVvaru
p4085
I12
sVvart
p4086
I1
sVazee
p4087
I2
sVsoof
p4088
I2
sVvars
p4089
I7
sVpant
p4090
I1
sVishu
p4091
I3
sVbhag
p4092
I7
sVbrij
p4093
I4
sVpane
p4094
I1
sVpank
p4095
I15
sVvarn
p4096
I2
sVsamr
p4097
I7
sVpras
p4098
I6
sVprar
p4099
I1
sVprat
p4100
I20
sVprav
p4101
I10
sVavin
p4102
I6
sVmish
p4103
I1
sVnime
p4104
I1
sVlate
p4105
I8
sVprac
p4106
I3
sVprab
p4107
I3
sVyami
p4108
I3
sVprad
p4109
I8
sVprag
p4110
I5
sVrabi
p4111
I3
sVprak
p4112
I9
sVapek
p4113
I2
sVpram
p4114
I5
sVraye
p4115
I4
sVanil
p4116
I6
sVanim
p4117
I2
sVanik
p4118
I1
sVrakh
p4119
I3
sVsafi
p4120
I4
sVrani
p4121
I2
sVrake
p4122
I8
sVgudd
p4123
I4
sVnade
p4124
I7
sVaeja
p4125
I1
sVmomi
p4126
I2
sVshri
p4127
I7
sVsati
p4128
I1
sVanit
p4129
I4
sVdiks
p4130
I4
sVanir
p4131
I2
sVasmi
p4132
I1
sVsans
p4133
I3
sVnama
p4134
I2
sValex
p4135
I1
sVzain
p4136
I1
sVjogi
p4137
I1
sVshan
p4138
I6
sVkeru
p4139
I2
sVirfa
p4140
I8
sNI193
sVasla
p4141
I4
sVnamr
p4142
I2
sVranv
p4143
I4
sVroch
p4144
I2
sVjuhi
p4145
I6
sValee
p4146
I4
sVakma
p4147
I1
sVsidd
p4148
I7
sVluck
p4149
I2
sVharm
p4150
I1
sVnaus
p4151
I4
sVgirr
p4152
I2
sVnavd
p4153
I2
sVhari
p4154
I3
sVkani
p4155
I8
sVkand
p4156
I3
sVnavj
p4157
I1
sVkanc
p4158
I2
sVnavo
p4159
I3
sVnavs
p4160
I1
sVnupu
p4161
I4
sVmete
p4162
I2
sVkrat
p4163
I2
sVabdu
p4164
I15
sVgirl
p4165
I1
sVkanu
p4166
I4
sVhars
p4167
I10
sVgiri
p4168
I3
sVabha
p4169
I4
sVamja
p4170
I1
sVstut
p4171
I2
sVmiss
p4172
I10
sVqaye
p4173
I2
sVruch
p4174
I15
sVmate
p4175
I2
sVnite
p4176
I3
sVsadi
p4177
I3
sVashm
p4178
I2
sVniti
p4179
I16
sVmath
p4180
I2
sVrupa
p4181
I1
sVvete
p4182
I1
sVzoya
p4183
I6
sVshus
p4184
I1
sVuzai
p4185
I1
sVkaus
p4186
I3
sVazim
p4187
I1
sVshud
p4188
I2
sVajay
p4189
I12
sVshub
p4190
I10
sVbasa
p4191
I2
sVrayy
p4192
I1
sVshum
p4193
I1
sVpune
p4194
I3
sVkunv
p4195
I2
sVsaha
p4196
I1
sVtahs
p4197
I1
sVtahr
p4198
I1
sVdiya
p4199
I4
sVkeer
p4200
I1
sVpuni
p4201
I2
sVtahi
p4202
I2
sVkuna
p4203
I2
sVimra
p4204
I21
sVkund
p4205
I1
sVsuvi
p4206
I1
sVappu
p4207
I1
sVsabr
p4208
I2
sVdine
p4209
I5
sVaars
p4210
I3
sVbhab
p4211
I2
sVhoor
p4212
I2
sVfhon
p4213
I2
sVbhan
p4214
I1
sVdink
p4215
I2
sVsach
p4216
I13
sVranj
p4217
I8
sVwasi
p4218
I4
sVbhat
p4219
I2
sVbhaw
p4220
I8
sVbhav
p4221
I4
sVrink
p4222
I2
sVbhar
p4223
I6
sVwase
p4224
I3
sVafee
p4225
I1
sVroni
p4226
I1
sVadil
p4227
I3
sVchan
p4228
I17
sVmamt
p4229
I2
sVaaee
p4230
I2
sVanwa
p4231
I2
sVbitt
p4232
I2
sVanur
p4233
I14
sVakan
p4234
I9
sVanup
p4235
I7
sVpard
p4236
I3
sVpara
p4237
I4
sVparn
p4238
I2
sVdigv
p4239
I1
sVpari
p4240
I1
sVekta
p4241
I3
sVesha
p4242
I1
sVparu
p4243
I1
sVpart
p4244
I4
sVnahi
p4245
I3
sVanuj
p4246
I5
sVnahe
p4247
I4
sVsazi
p4248
I2
sVakas
p4249
I4
sVtham
p4250
I1
sVsaql
p4251
I1
sVarus
p4252
I3
sVnive
p4253
I3
sVgaya
p4254
I3
sVsuji
p4255
I1
sVaami
p4256
I1
sVnain
p4257
I2
sVvikr
p4258
I8
sVdani
p4259
I4
sVbind
p4260
I1
sVarun
p4261
I9
sVmuba
p4262
I2
sVaima
p4263
I2
sVmube
p4264
I2
sVminh
p4265
I4
sVjais
p4266
I1
sVvija
p4267
I6
sVkart
p4268
I1
sVanus
p4269
I3
sVneet
p4270
I3
sVtabr
p4271
I2
sVviji
p4272
I2
sVneer
p4273
I10
sVneel
p4274
I11
sVkara
p4275
I4
sVrenu
p4276
I4
sVjaiv
p4277
I1
sVadhe
p4278
I1
sVghou
p4279
I1
sVspna
p4280
I1
sVnazn
p4281
I2
sVnazi
p4282
I12
sVsula
p4283
I3
sVkayn
p4284
I1
sVsibt
p4285
I1
sVzoha
p4286
I1
sVjule
p4287
I1
sVatif
p4288
I1
sVamna
p4289
I2
sVapsh
p4290
I1
sVyuvr
p4291
I3
sVatis
p4292
I2
sVzohr
p4293
I2
sVtala
p4294
I2
sVjaha
p4295
I3
sVsukr
p4296
I3
sVkusu
p4297
I2
sVjouh
p4298
I1
sVista
p4299
I1
sVsimi
p4300
I1
sVsure
p4301
I4
sVmosa
p4302
I3
sVsura
p4303
I2
sVkush
p4304
I2
sVaman
p4305
I10
sVarvi
p4306
I7
sVsurv
p4307
I1
sVazma
p4308
I2
sVkrip
p4309
I2
sVvish
p4310
I14
sVajee
p4311
I2
sVsury
p4312
I3
sVindu
p4313
I5
sVraaj
p4314
I1
sVsalm
p4315
I10
sVniha
p4316
I3
sVparv
p4317
I10
sVpuja
p4318
I1
sVphil
p4319
I2
sVaksh
p4320
I9
sVrais
p4321
I3
sVdoll
p4322
I6
sVsoha
p4323
I2
sVrukh
p4324
I1
sVraji
p4325
I1
sVshen
p4326
I3
sVhiba
p4327
I4
sVgold
p4328
I2
sVrajn
p4329
I5
sVraja
p4330
I9
sVamik
p4331
I1
sVraje
p4332
I19
sValka
p4333
I4
sVpriy
p4334
I60
sVthak
p4335
I3
sVshob
p4336
I2
sVnage
p4337
I1
sVyasm
p4338
I4
sVrajp
p4339
I4
sVrajs
p4340
I3
sVraju
p4341
I1
sVprit
p4342
I10
sVshon
p4343
I1
sVrajv
p4344
I2
sVasga
p4345
I1
sVzahi
p4346
I3
sVarpi
p4347
I5
sVarpa
p4348
I5
sVishf
p4349
I1
sVguln
p4350
I2
sVavan
p4351
I1
sVkesh
p4352
I1
sVgulr
p4353
I3
sVguls
p4354
I1
sVlekh
p4355
I2
sVayes
p4356
I16
sVlubn
p4357
I9
sVafza
p4358
I2
sVsehe
p4359
I5
sVmunn
p4360
I1
sVdils
p4361
I2
sVbeau
p4362
I1
sVpava
p4363
I2
sVmuna
p4364
I4
sVshra
p4365
I8
sVgeet
p4366
I5
sVafsa
p4367
I3
sVyukt
p4368
I3
sVaanc
p4369
I5
sVsaur
p4370
I21
sVnish
p4371
I16
sVjasm
p4372
I5
sVpulk
p4373
I1
sVmafi
p4374
I1
sVnaur
p4375
I6
sVgaut
p4376
I3
sVgaur
p4377
I35
sVmaqb
p4378
I2
sVruna
p4379
I1
sVanja
p4380
I8
sVaais
p4381
I1
sVarya
p4382
I1
sVsupr
p4383
I5
sVsaum
p4384
I1
sVragi
p4385
I4
sVbaru
p4386
I2
sVsime
p4387
I2
sVvino
p4388
I2
sVfais
p4389
I6
sVvina
p4390
I8
sVumra
p4391
I1
sVyusu
p4392
I4
sVvine
p4393
I3
sVvind
p4394
I1
sVfaiz
p4395
I5
sVfaim
p4396
I1
sVbark
p4397
I2
sVemam
p4398
I2
sVfaii
p4399
I1
sVfaij
p4400
I1
sVsaif
p4401
I2
sVaror
p4402
I2
sVishr
p4403
I3
sValim
p4404
I1
sVapoo
p4405
I1
sVsaim
p4406
I2
sVyash
p4407
I5
sVzeba
p4408
I4
sVambr
p4409
I4
sVradh
p4410
I4
sVjite
p4411
I14
sVisha
p4412
I5
sVriti
p4413
I11
sVatul
p4414
I7
sVzarm
p4415
I2
sVrite
p4416
I8
sVazaz
p4417
I2
sVdhru
p4418
I1
sVamee
p4419
I1
sVibra
p4420
I3
sVsrav
p4421
I2
sVnaye
p4422
I1
sVutka
p4423
I4
sVrimi
p4424
I1
sVmans
p4425
I5
sVnilo
p4426
I3
sVmanu
p4427
I4
sVmanv
p4428
I4
sVmona
p4429
I2
sValok
p4430
I4
sVmanz
p4431
I5
sVnile
p4432
I2
sVmoni
p4433
I17
sVafro
p4434
I4
sVanoo
p4435
I4
sVhite
p4436
I1
sVmang
p4437
I1
sVrame
p4438
I5
sVmanj
p4439
I2
sVbrah
p4440
I4
sVrama
p4441
I2
sVnilu
p4442
I2
sVmano
p4443
I12
sVvaid
p4444
I2
sVvije
p4445
I1
sVvaib
p4446
I5
sVgyan
p4447
I2
sVmrin
p4448
I4
sVjaya
p4449
I3
sVakba
p4450
I4
sVjaye
p4451
I1
sViqba
p4452
I1
sVmrit
p4453
I2
sVravi
p4454
I10
sVfemi
p4455
I3
sVpath
p4456
I4
sVpadm
p4457
I2
sValia
p4458
I2
sVjave
p4459
I19
sVsari
p4460
I3
sVshil
p4461
I11
sVdeep
p4462
I46
sVayaa
p4463
I1
sVnazr
p4464
I2
sVsneh
p4465
I9
sVmari
p4466
I5
sVmark
p4467
I1
sVmaru
p4468
I2
sVbeer
p4469
I1
sVmaif
p4470
I1
sVarte
p4471
I1
sVkahi
p4472
I2
sVmina
p4473
I1
sVarti
p4474
I1
sVaija
p4475
I3
sVayas
p4476
I1
sVsarv
p4477
I2
sVkaha
p4478
I1
sVrube
p4479
I1
sVyoge
p4480
I14
sVavip
p4481
I1
sVshif
p4482
I2
sVneha
p4483
I59
sVrubi
p4484
I5
sVmuja
p4485
I2
sVaqli
p4486
I1
sVvand
p4487
I6
sVvani
p4488
I2
sVbulb
p4489
I1
sVdhee
p4490
I7
sVdilb
p4491
I1
sVruby
p4492
I2
sVdavi
p4493
I1
sVdepe
p4494
I1
sVsuha
p4495
I5
sVmain
p4496
I1
sVpkul
p4497
I1
sVtanj
p4498
I1
sVlati
p4499
I1
sVsobh
p4500
I1
sVsobi
p4501
I1
sVnida
p4502
I5
sVkavi
p4503
I15
sVagar
p4504
I2
sVhame
p4505
I1
sVarfa
p4506
I1
sVtanv
p4507
I6
sVtanu
p4508
I11
sVpran
p4509
I8
sValvi
p4510
I1
sVviia
p4511
I1
sVkavy
p4512
I2
sVifti
p4513
I1
sVrahu
p4514
I52
sVsush
p4515
I7
sVjaga
p4516
I1
sVnadi
p4517
I2
sVhena
p4518
I2
sVilya
p4519
I1
sVnave
p4520
I9
sVyati
p4521
I2
sVvire
p4522
I2
sVhenu
p4523
I1
sVmegh
p4524
I13
sVtaba
p4525
I1
sVjyot
p4526
I33
sVyate
p4527
I1
sVshar
p4528
I17
sVshas
p4529
I4
sVsami
p4530
I2
sVafdf
p4531
I1
sVbhoo
p4532
I1
sVshaw
p4533
I2
sVlavi
p4534
I1
sVshaz
p4535
I4
sVshiv
p4536
I22
sVsama
p4537
I1
sVshay
p4538
I4
sVyunu
p4539
I2
sVsame
p4540
I16
sVtrip
p4541
I1
sVshab
p4542
I21
sVshaa
p4543
I2
sVshag
p4544
I14
sVshad
p4545
I7
sVrafa
p4546
I4
sVsams
p4547
I1
sVshak
p4548
I4
sVshah
p4549
I28
sVshai
p4550
I44
sVmaks
p4551
I3
sVshal
p4552
I10
sVsham
p4553
I5
sVsada
p4554
I4
sVhani
p4555
I1
sVayod
p4556
I2
sVnabi
p4557
I1
sVanke
p4558
I1
sVlaxm
p4559
I4
sVsukh
p4560
I1
sVsadh
p4561
I1
sVanki
p4562
I40
sVzahe
p4563
I5
sVkeyu
p4564
I1
sVjiya
p4565
I5
sVdimp
p4566
I9
sVuroo
p4567
I2
sVanku
p4568
I5
sVmani
p4569
I28
sVahsh
p4570
I1
sVraka
p4571
I1
sVhshe
p4572
I1
sVmank
p4573
I1
sVtasn
p4574
I2
sVaish
p4575
I2
sVarsh
p4576
I8
sVdris
p4577
I1
sVsyed
p4578
I41
sVavde
p4579
I1
sVsetu
p4580
I2
sVrome
p4581
I2
sVrifa
p4582
I2
sVkaar
p4583
I1
sViffa
p4584
I3
sVroma
p4585
I1
sVutta
p4586
I3
sVajim
p4587
I1
sVdoct
p4588
I1
sVhafi
p4589
I3
sVkash
p4590
I8
sVwahi
p4591
I1
sVsimp
p4592
I1
sVsufi
p4593
I1
sVwahe
p4594
I1
sVkalp
p4595
I2
sVafra
p4596
I2
sVafre
p4597
I6
sVafri
p4598
I2
sVhina
p4599
I4
sVsimo
p4600
I2
sVvidh
p4601
I2
sVrosh
p4602
I3
sVsavy
p4603
I1
sVbani
p4604
I2
sVjosh
p4605
I1
sVdhan
p4606
I1
sVseem
p4607
I13
sVanis
p4608
I8
sVdhar
p4609
I4
sVvidy
p4610
I1
sVnira
p4611
I2
sVreha
p4612
I8
sVsavi
p4613
I4
sVnirm
p4614
I2
sVrehm
p4615
I2
sVlaks
p4616
I5
sVvima
p4617
I4
sVkhum
p4618
I2
sVmaya
p4619
I5
sVgovi
p4620
I1
sVfate
p4621
I1
sVfati
p4622
I6
sVshwe
p4623
I29
sVjaki
p4624
I1
sVmayu
p4625
I7
sVzayi
p4626
I1
sVapur
p4627
I5
sVaraf
p4628
I1
sVzulf
p4629
I3
sVsumi
p4630
I15
sVarak
p4631
I1
sVsume
p4632
I2
sVsumb
p4633
I1
sVsuma
p4634
I4
sVaram
p4635
I2
sVsofi
p4636
I3
sVamol
p4637
I1
sVathi
p4638
I2
sVkuld
p4639
I3
sVsaks
p4640
I3
sVnami
p4641
I2
sVarju
p4642
I6
sVrich
p4643
I9
sVshxy
p4644
I1
sVshed
p4645
I1
sVshee
p4646
I13
sVsheb
p4647
I2
sVhaid
p4648
I2
sVmohs
p4649
I4
sVlipi
p4650
I1
sVrraj
p4651
I1
sVvais
p4652
I5
sVshek
p4653
I2
sVdole
p4654
I1
sVshei
p4655
I6
sVmohd
p4656
I32
sVresh
p4657
I4
sVsher
p4658
I4
sVmoha
p4659
I73
sVpala
p4660
I2
sVsurb
p4661
I6
sVmurs
p4662
I3
sVmohi
p4663
I22
sVnaaz
p4664
I5
sVakht
p4665
I1
sVrohi
p4666
I27
sVrina
p4667
I2
sVmrsh
p4668
I2
sVroha
p4669
I5
sVumes
p4670
I5
sVsaan
p4671
I1
sVnoor
p4672
I8
sVsano
p4673
I6
sVsaji
p4674
I2
sVumar
p4675
I1
sVakhi
p4676
I8
sVasth
p4677
I1
sVpeeh
p4678
I1
sVmitt
p4679
I4
sVaadi
p4680
I1
sVfara
p4681
I4
sVburh
p4682
I2
sVazra
p4683
I1
sVsaxe
p4684
I4
sVasad
p4685
I1
sVnafe
p4686
I1
sVachi
p4687
I2
sVhabi
p4688
I4
sVkhan
p4689
I6
sVraun
p4690
I4
sVaady
p4691
I1
sVliya
p4692
I2
sVmudr
p4693
I2
sVusha
p4694
I1
sVruhe
p4695
I1
sVclau
p4696
I1
sVashi
p4697
I22
sVruha
p4698
I1
sVidra
p4699
I1
sVbisw
p4700
I1
sVjeet
p4701
I2
sVjeev
p4702
I2
sVsake
p4703
I1
sVmuda
p4704
I2
sVbish
p4705
I2
sVindr
p4706
I3
sVashu
p4707
I7
sVashw
p4708
I3
sVashp
p4709
I1
sVashr
p4710
I1
sVzaki
p4711
I4
sVshre
p4712
I8
sVmuku
p4713
I2
sVgari
p4714
I4
sVgarg
p4715
I2
sVamar
p4716
I6
sVmysh
p4717
I1
sVfero
p4718
I2
sVsarg
p4719
I2
sVshru
p4720
I11
sVskma
p4721
I1
sVmuke
p4722
I4
sVjenn
p4723
I1
sVsubo
p4724
I1
sVmrad
p4725
I1
sVpaya
p4726
I2
sVkapi
p4727
I9
sVsubh
p4728
I8
sVaarz
p4729
I1
sVkehk
p4730
I1
sVfiza
p4731
I1
sVamaa
p4732
I1
sVjanv
p4733
I2
sVaart
p4734
I11
sVaaru
p4735
I2
sVnova
p4736
I2
sVsmit
p4737
I1
sVappo
p4738
I2
sVaari
p4739
I1
sVayaz
p4740
I1
sVnaza
p4741
I2
sVgopa
p4742
I5
sVaard
p4743
I2
sVjahi
p4744
I1
sVanch
p4745
I1
sVreet
p4746
I2
sVpiyu
p4747
I1
sVtama
p4748
I1
sVgaza
p4749
I4
sVdipt
p4750
I2
sVhaml
p4751
I2
sVdipi
p4752
I2
sVanee
p4753
I3
sVreed
p4754
I2
sVnuzh
p4755
I1
sVjagr
p4756
I2
sVdipe
p4757
I2
sVreem
p4758
I3
sVreen
p4759
I4
sVbadr
p4760
I1
sVsomy
p4761
I3
sVmade
p4762
I2
sVvive
p4763
I15
sVhira
p4764
I1
sVlaya
p4765
I1
sVvivi
p4766
I1
sVragh
p4767
I4
sVsalo
p4768
I2
sVwaqa
p4769
I2
sVmadh
p4770
I10
sVzari
p4771
I3
sVkaru
p4772
I1
sVkhat
p4773
I2
sVfaaz
p4774
I2
sVzara
p4775
I1
sVarma
p4776
I6
sVzare
p4777
I1
sVpall
p4778
I16
sVshik
p4779
I12
sVraha
p4780
I1
sVshin
p4781
I1
sVreya
p4782
I1
sVrahe
p4783
I2
sVdurg
p4784
I3
sVrahi
p4785
I3
sVshia
p4786
I2
sVdila
p4787
I1
sVrahm
p4788
I1
sVsale
p4789
I4
sVchar
p4790
I4
sVharw
p4791
I2
sVtosh
p4792
I3
sVtosi
p4793
I1
sVirsh
p4794
I4
sVdeek
p4795
I1
sVanju
p4796
I17
sVchau
p4797
I1
sVshir
p4798
I6
sVshis
p4799
I2
sVship
p4800
I3
sVdeeb
p4801
I3
sVshiw
p4802
I2
sVkhus
p4803
I6
sVhami
p4804
I1
sVtark
p4805
I1
sVtari
p4806
I1
sVhafe
p4807
I3
sVkabe
p4808
I1
sVtara
p4809
I6
sVyogi
p4810
I2
sVkirt
p4811
I7
sVkrut
p4812
I1
sVavni
p4813
I4
sVfird
p4814
I3
sVriah
p4815
I2
sVkira
p4816
I6
sVtaru
p4817
I5
sVpoor
p4818
I2
sVkain
p4819
I1
sVrast
p4820
I2
sVpapi
p4821
I1
sVroya
p4822
I2
sVjuna
p4823
I2
sVtany
p4824
I1
sVfkha
p4825
I1
sVbilq
p4826
I2
sVansh
p4827
I12
sVazha
p4828
I8
sVleen
p4829
I1
sVpooj
p4830
I29
sVansa
p4831
I6
sVpoon
p4832
I9
sVnasr
p4833
I8
sVaaka
p4834
I5
sVuzma
p4835
I5
sVsmri
p4836
I3
sVvick
p4837
I8
sVadar
p4838
I1
sVkais
p4839
I1
sVchav
p4840
I1
sVaakr
p4841
I2
sVakri
p4842
I5
sVejaz
p4843
I1
sVnase
p4844
I3
sVpush
p4845
I6
sVrewt
p4846
I2
sVnasi
p4847
I1
sVzuba
p4848
I1
stp4849
Rp4850
sg46
I2323
sg47
F5732.5
sbs(g8
g3769
tp4851
g0
(g17
g2
Ntp4852
Rp4853
(dp4854
g21
F0.5
sg22
I6239
sg23
g24
((dp4855
Vgu
p4856
I2
sVgp
p4857
I2
sVge
p4858
I4
sVga
p4859
I6
sVgi
p4860
I2
sVgh
p4861
I5
sVaj
p4862
I84
sVle
p4863
I6
sVla
p4864
I94
sVll
p4865
I1
sVtu
p4866
I2
sVli
p4867
I48
sVto
p4868
I2
sVlu
p4869
I2
sVth
p4870
I230
sVti
p4871
I59
sVia
p4872
I6
sVta
p4873
I52
sVyi
p4874
I1
sVdh
p4875
I9
sVdi
p4876
I14
sVya
p4877
I188
sVde
p4878
I2
sVda
p4879
I16
sVdy
p4880
I18
sVdu
p4881
I8
sNI2061
sVem
p4882
I3
sVel
p4883
I21
sVen
p4884
I66
sVzh
p4885
I2
sVeh
p4886
I2
sVek
p4887
I6
sVej
p4888
I2
sVee
p4889
I31
sVed
p4890
I27
sVeb
p4891
I3
sVey
p4892
I4
sVet
p4893
I10
sVev
p4894
I12
sVeq
p4895
I3
sVep
p4896
I43
sVes
p4897
I7
sVer
p4898
I37
sVru
p4899
I6
sVrs
p4900
I1
sVry
p4901
I2
sVrd
p4902
I2
sVre
p4903
I12
sVun
p4904
I6
sVra
p4905
I103
sVro
p4906
I2
sVri
p4907
I87
sVba
p4908
I9
sVvi
p4909
I54
sVju
p4910
I7
sVbh
p4911
I2
sVbu
p4912
I16
sVji
p4913
I12
sVja
p4914
I34
sVon
p4915
I27
sVol
p4916
I5
sVof
p4917
I3
sVod
p4918
I3
sVoy
p4919
I2
sVor
p4920
I2
sVop
p4921
I2
sVck
p4922
I7
sVxi
p4923
I1
sVal
p4924
I35
sVca
p4925
I1
sVce
p4926
I6
sVty
p4927
I14
sVcv
p4928
I2
sVad
p4929
I29
sVpu
p4930
I2
sVby
p4931
I2
sVpa
p4932
I26
sVah
p4933
I8
sVph
p4934
I6
sVak
p4935
I19
sVhy
p4936
I41
sVhr
p4937
I1
sVhs
p4938
I2
sVhp
p4939
I1
sVka
p4940
I83
sVik
p4941
I31
sVhu
p4942
I34
sVhi
p4943
I149
sVhn
p4944
I1
sVha
p4945
I301
sVme
p4946
I1
sVma
p4947
I62
sVmi
p4948
I81
sVas
p4949
I26
sVur
p4950
I2
sVmu
p4951
I1
sVmv
p4952
I2
sVly
p4953
I7
sVua
p4954
I1
sVil
p4955
I28
sVaa
p4956
I2
sVva
p4957
I11
sVab
p4958
I1
sVve
p4959
I2
sVag
p4960
I2
sVaf
p4961
I5
sVai
p4962
I5
sVip
p4963
I1
sVis
p4964
I1
sVvk
p4965
I1
sVam
p4966
I71
sVit
p4967
I1
sVao
p4968
I8
sVan
p4969
I252
sVap
p4970
I5
sVvr
p4971
I1
sVar
p4972
I227
sVim
p4973
I4
sVat
p4974
I9
sVav
p4975
I11
sVay
p4976
I9
sVmy
p4977
I8
sVaz
p4978
I2
sVie
p4979
I8
sVnh
p4980
I2
sVni
p4981
I161
sVnk
p4982
I4
sVnn
p4983
I1
sVna
p4984
I205
sVnd
p4985
I15
sVne
p4986
I6
sVng
p4987
I1
sVny
p4988
I4
sVsh
p4989
I444
sVns
p4990
I1
sVnt
p4991
I18
sVnu
p4992
I23
sVa,
p4993
I2
sVfa
p4994
I1
sVff
p4995
I2
sVsy
p4996
I2
sVin
p4997
I55
sVss
p4998
I2
sVki
p4999
I4
sVkh
p5000
I3
sVsu
p5001
I4
sVst
p5002
I1
sVsi
p5003
I5
sVkp
p5004
I2
sVsa
p5005
I3
sVsf
p5006
I1
sVse
p5007
I5
stp5008
Rp5009
sg46
I205
sg47
F6341.5
sbs(g9
g3769
tp5010
g0
(g17
g2
Ntp5011
Rp5012
(dp5013
g21
F0.5
sg22
I3097
sg23
g24
((dp5014
Vvi
p5015
I26
sVia
p5016
I2
sVxi
p5017
I2
sVva
p5018
I3
sVal
p5019
I107
sVca
p5020
I3
sVne
p5021
I1
sVge
p5022
I1
sVab
p5023
I4
sVfi
p5024
I2
sVng
p5025
I11
sVgi
p5026
I9
sVad
p5027
I9
sVkh
p5028
I7
sVka
p5029
I77
sVle
p5030
I1
sVag
p5031
I5
sVty
p5032
I2
sVtt
p5033
I1
sVli
p5034
I79
sVpa
p5035
I14
sVth
p5036
I19
sVti
p5037
I35
sVte
p5038
I2
sVta
p5039
I97
sVip
p5040
I10
sVaj
p5041
I27
sVan
p5042
I78
sVdh
p5043
I6
sVdi
p5044
I1
sVya
p5045
I48
sVde
p5046
I3
sVye
p5047
I2
sVsy
p5048
I1
sVda
p5049
I18
sVhi
p5050
I45
sVha
p5051
I81
sVyu
p5052
I2
sVma
p5053
I14
sVla
p5054
I7
sVmi
p5055
I11
sVas
p5056
I9
sNI1124
sVnu
p5057
I3
sVum
p5058
I2
sVul
p5059
I5
sVmy
p5060
I1
sVil
p5061
I28
sVem
p5062
I2
sVel
p5063
I5
sVen
p5064
I11
sVve
p5065
I2
sVek
p5066
I7
sVee
p5067
I32
sVah
p5068
I2
sVak
p5069
I13
sVir
p5070
I5
sVam
p5071
I20
sVza
p5072
I3
sVeb
p5073
I1
sVap
p5074
I2
sVik
p5075
I31
sVar
p5076
I65
sVat
p5077
I11
sVav
p5078
I27
sVay
p5079
I25
sVet
p5080
I28
sVev
p5081
I5
sVie
p5082
I2
sVep
p5083
I20
sVer
p5084
I3
sVnh
p5085
I7
sVni
p5086
I54
sVaz
p5087
I1
sVrp
p5088
I2
sVna
p5089
I72
sVnd
p5090
I6
sVry
p5091
I2
sVid
p5092
I2
sVre
p5093
I5
sVrg
p5094
I2
sVra
p5095
I48
sVit
p5096
I15
sVns
p5097
I2
sVnt
p5098
I66
sVri
p5099
I11
sVwa
p5100
I1
sVfy
p5101
I2
sVbh
p5102
I9
sVbu
p5103
I6
sVnk
p5104
I10
sVji
p5105
I1
sVje
p5106
I1
sVhu
p5107
I3
sVja
p5108
I4
sVsp
p5109
I1
sVoo
p5110
I4
sVom
p5111
I2
sVin
p5112
I60
sVke
p5113
I1
sVki
p5114
I4
sVod
p5115
I7
sVsj
p5116
I2
sVsi
p5117
I4
sVsh
p5118
I300
sVoz
p5119
I2
sVsa
p5120
I4
sVot
p5121
I1
sVor
p5122
I6
stp5123
Rp5124
sg46
I205
sg47
F3199.5
sbs(g8
g1429
tp5125
g0
(g17
g2
Ntp5126
Rp5127
(dp5128
g21
F0.5
sg22
I6239
sg23
g24
((dp5129
Vlini
p5130
I1
sVraja
p5131
I6
sVhacv
p5132
I2
sVhati
p5133
I2
sVvani
p5134
I11
sVelan
p5135
I1
sVmila
p5136
I3
sVdish
p5137
I3
sVodha
p5138
I1
sVmili
p5139
I2
sVurur
p5140
I2
sVgula
p5141
I1
sVoodi
p5142
I1
sVakar
p5143
I5
sVnkar
p5144
I6
sVugan
p5145
I5
sVugam
p5146
I1
sVrasu
p5147
I2
sVrick
p5148
I1
sVswar
p5149
I2
sVana,
p5150
I2
sVrice
p5151
I2
sVdhin
p5152
I1
sVrish
p5153
I2
sVluri
p5154
I2
sVkesh
p5155
I2
sVkshi
p5156
I3
sVksha
p5157
I7
sVelvi
p5158
I2
sVrjun
p5159
I1
sVresh
p5160
I3
sVekar
p5161
I10
sVyala
p5162
I1
sVjali
p5163
I3
sVitro
p5164
I2
sVanan
p5165
I13
sVidha
p5166
I1
sVanam
p5167
I2
sVence
p5168
I2
sVhore
p5169
I1
sVfina
p5170
I1
sVntha
p5171
I5
sVegde
p5172
I1
sVshmi
p5173
I17
sVshti
p5174
I1
sVhula
p5175
I3
sVmsai
p5176
I2
sVnthi
p5177
I8
sVshma
p5178
I3
sVdian
p5179
I2
sVishp
p5180
I1
sVraju
p5181
I5
sVmity
p5182
I2
sVhish
p5183
I1
sVnand
p5184
I7
sVkkam
p5185
I1
sVisha
p5186
I1
sVjith
p5187
I10
sVatra
p5188
I2
sVayee
p5189
I1
sVjeti
p5190
I2
sViran
p5191
I2
sVirao
p5192
I1
sVeera
p5193
I2
sVkami
p5194
I2
sVmula
p5195
I1
sVsini
p5196
I3
sVpati
p5197
I10
sVmkar
p5198
I1
sVoshi
p5199
I1
sVmbar
p5200
I1
sVsina
p5201
I1
sVanth
p5202
I38
sVveer
p5203
I1
sVramu
p5204
I1
sVlaja
p5205
I1
sVeesh
p5206
I14
sVomas
p5207
I1
sVlash
p5208
I4
sVhith
p5209
I4
sVhima
p5210
I4
sVrsan
p5211
I2
sVenah
p5212
I2
sVdhan
p5213
I13
sVhree
p5214
I24
sVanti
p5215
I5
sValli
p5216
I7
sVbose
p5217
I1
sVrasi
p5218
I1
sVavan
p5219
I4
sVandi
p5220
I4
sVandh
p5221
I1
sVthri
p5222
I12
sVaaji
p5223
I1
sVitha
p5224
I16
sVmari
p5225
I5
sVthra
p5226
I11
sVmmed
p5227
I23
sVtine
p5228
I1
sVnath
p5229
I46
sVtina
p5230
I1
sVmars
p5231
I1
sVkhar
p5232
I9
sVarth
p5233
I3
sVdhra
p5234
I2
sVntam
p5235
I2
sVndha
p5236
I2
sVttan
p5237
I2
sVdhev
p5238
I2
sVpudi
p5239
I3
sVnyaa
p5240
I2
sVumal
p5241
I1
sVbabu
p5242
I16
sVwari
p5243
I13
sVbaby
p5244
I2
sVuraj
p5245
I3
sVdhya
p5246
I1
sVivee
p5247
I2
sVyyak
p5248
I2
sVivel
p5249
I3
sVkavi
p5250
I1
sVagar
p5251
I3
sVkhnh
p5252
I2
sVroop
p5253
I1
sVutra
p5254
I1
sVopal
p5255
I3
sVmala
p5256
I6
sVohan
p5257
I2
sVetti
p5258
I1
sVifer
p5259
I4
sVeran
p5260
I2
sVjesh
p5261
I1
sVrapu
p5262
I2
sVetty
p5263
I7
sViona
p5264
I1
sVhiga
p5265
I1
sVngam
p5266
I3
sVstin
p5267
I1
sVntan
p5268
I3
sVuvel
p5269
I1
sVurna
p5270
I2
sVsath
p5271
I2
sVshan
p5272
I5
sVhank
p5273
I4
sVanka
p5274
I16
sVelli
p5275
I1
sVidya
p5276
I1
sVhana
p5277
I7
sVsree
p5278
I1
sVupta
p5279
I1
sVhyam
p5280
I1
sVeeth
p5281
I5
sVmesh
p5282
I5
sVagam
p5283
I1
sVnesh
p5284
I4
sVmani
p5285
I12
sVkeya
p5286
I1
sVeeta
p5287
I1
sVhant
p5288
I1
sVdeva
p5289
I3
sVmudi
p5290
I2
sVkuri
p5291
I1
sVriya
p5292
I18
sVdevi
p5293
I11
sVndan
p5294
I10
sVarsh
p5295
I1
sVrsha
p5296
I2
sVutty
p5297
I1
sVeyan
p5298
I12
sVwini
p5299
I10
sVtala
p5300
I1
sVndar
p5301
I8
sVdita
p5302
I2
sVvika
p5303
I2
sVanna
p5304
I3
sVkala
p5305
I4
sVhnan
p5306
I18
sVuthu
p5307
I1
sVhton
p5308
I1
sVabal
p5309
I2
sVgavi
p5310
I1
sVunta
p5311
I2
sVhali
p5312
I1
sVhwar
p5313
I2
sVhraj
p5314
I1
sVsiva
p5315
I2
sVkila
p5316
I2
sVlesh
p5317
I6
sVutha
p5318
I1
sVhraf
p5319
I3
sVjose
p5320
I1
sVshri
p5321
I2
sVsnak
p5322
I1
sVrika
p5323
I2
sVshgp
p5324
I2
sVnima
p5325
I1
sVsamy
p5326
I2
sVudha
p5327
I2
sVarao
p5328
I5
sVdhar
p5329
I7
sVhina
p5330
I1
sVthna
p5331
I2
sVhine
p5332
I3
sVloor
p5333
I2
sVhini
p5334
I13
sVgava
p5335
I1
sVmmad
p5336
I5
sVally
p5337
I4
sVanya
p5338
I13
sVbanu
p5339
I3
sVnadh
p5340
I2
sVhsna
p5341
I1
sVtthy
p5342
I2
sVlvan
p5343
I1
sVhala
p5344
I4
sVaiah
p5345
I1
sVdari
p5346
I1
sVdesh
p5347
I4
sVkash
p5348
I3
sVgama
p5349
I1
sVadri
p5350
I2
sVarai
p5351
I2
sVaran
p5352
I29
sVhall
p5353
I1
sVaram
p5354
I2
sVlika
p5355
I1
sVatha
p5356
I20
sVivas
p5357
I18
sVnson
p5358
I2
sVamol
p5359
I2
sVtrao
p5360
I2
sVtran
p5361
I1
sNI4576
sVhuni
p5362
I1
sVheek
p5363
I1
sVhhmi
p5364
I2
sVheen
p5365
I1
sVathi
p5366
I29
sVkera
p5367
I1
sVukar
p5368
I1
sVshee
p5369
I2
sVneni
p5370
I2
sVhari
p5371
I3
sVkani
p5372
I2
sVnavi
p5373
I4
sVerma
p5374
I2
sVibha
p5375
I2
sVndra
p5376
I20
sVhara
p5377
I8
sVkana
p5378
I1
sVsley
p5379
I2
sVvdas
p5380
I1
sVhary
p5381
I2
sVpala
p5382
I2
sVaxmi
p5383
I9
sVkant
p5384
I7
sVilla
p5385
I4
sVaidu
p5386
I4
sVabha
p5387
I2
sVeepa
p5388
I2
sVrali
p5389
I1
sVumar
p5390
I126
sVrala
p5391
I2
sVnraj
p5392
I2
sVouda
p5393
I2
sVajan
p5394
I11
sVmare
p5395
I2
sVachu
p5396
I1
sVhosh
p5397
I20
sVhulu
p5398
I1
sVpher
p5399
I2
sVshna
p5400
I23
sVasad
p5401
I13
sVkhan
p5402
I1
sVasam
p5403
I1
sVathy
p5404
I4
sVmara
p5405
I1
sVseph
p5406
I2
sVusha
p5407
I4
sVttam
p5408
I1
sVarya
p5409
I12
sVothi
p5410
I2
sVanga
p5411
I2
sVasan
p5412
I6
sVjeet
p5413
I1
sVelly
p5414
I1
sVncia
p5415
I1
sVnder
p5416
I4
sVayya
p5417
I3
sVjini
p5418
I1
sVrthy
p5419
I7
sVrani
p5420
I7
sVinth
p5421
I2
sVdini
p5422
I4
sVyina
p5423
I1
sVdran
p5424
I11
sVavel
p5425
I1
sVajvr
p5426
I1
sVaren
p5427
I2
sVhick
p5428
I6
sVeddy
p5429
I17
sVnian
p5430
I1
sVesan
p5431
I6
sVhiya
p5432
I7
sVappa
p5433
I5
sVeena
p5434
I13
sVnyam
p5435
I1
sVakam
p5436
I1
sVhker
p5437
I1
sVetha
p5438
I22
sVshek
p5439
I2
sVesha
p5440
I9
sVhiba
p5441
I2
sVline
p5442
I2
sVthan
p5443
I11
sVtham
p5444
I4
sVthal
p5445
I2
sVeppa
p5446
I1
sVjohn
p5447
I1
sVyena
p5448
I2
sVayil
p5449
I2
sVhika
p5450
I9
sVkini
p5451
I1
sVahim
p5452
I1
sVatta
p5453
I2
sVeban
p5454
I2
sVneya
p5455
I2
sVhikp
p5456
I2
sVmini
p5457
I2
sViyar
p5458
I1
sVaraj
p5459
I22
sVmizh
p5460
I1
sVdass
p5461
I2
sVhuja
p5462
I1
sVchal
p5463
I2
sVdeen
p5464
I1
sVadha
p5465
I3
sVkara
p5466
I3
sVhavi
p5467
I6
sVkari
p5468
I2
sVvati
p5469
I5
sVshit
p5470
I1
sVhami
p5471
I1
sVklin
p5472
I3
sVimha
p5473
I2
sVtesh
p5474
I15
sVikmv
p5475
I2
sVteja
p5476
I2
sVisal
p5477
I2
sVatil
p5478
I2
sVimol
p5479
I1
sVeela
p5480
I1
sVrath
p5481
I2
sVkpal
p5482
I1
sVhida
p5483
I2
sVnfff
p5484
I2
sVrthi
p5485
I6
sVjuna
p5486
I4
sVekha
p5487
I3
sVozhi
p5488
I4
sVaman
p5489
I7
sVrtha
p5490
I3
sVevan
p5491
I3
sVicvk
p5492
I1
sVamar
p5493
I1
sVingh
p5494
I3
sVbeth
p5495
I2
sVwamy
p5496
I4
sVsnth
p5497
I1
sVgesh
p5498
I1
sVkiya
p5499
I3
sVlraj
p5500
I1
sVadas
p5501
I3
sVhman
p5502
I4
sVinda
p5503
I4
sVyana
p5504
I3
sVarla
p5505
I3
sVnash
p5506
I1
stp5507
Rp5508
sg46
I647
sg47
F6562.5
sbs(g12
g1582
tp5509
g0
(g17
g2
Ntp5510
Rp5511
(dp5512
g21
F0.5
sg22
I1496
sg23
g24
((dp5513
Viti
p5514
I2
sVrth
p5515
I8
sVita
p5516
I4
sVvir
p5517
I1
sVian
p5518
I1
sVwak
p5519
I1
sVell
p5520
I1
sVali
p5521
I7
sVngh
p5522
I6
sVyap
p5523
I2
sVvya
p5524
I1
sVhay
p5525
I2
sVjit
p5526
I13
sVaur
p5527
I8
sVmli
p5528
I1
sVwar
p5529
I1
sVhav
p5530
I1
sVhek
p5531
I3
sVnka
p5532
I9
sVraj
p5533
I4
sVoop
p5534
I2
sVoor
p5535
I1
sVokh
p5536
I1
sVbir
p5537
I4
sVokl
p5538
I2
sViya
p5539
I2
sVshu
p5540
I5
sVeta
p5541
I2
sVlja
p5542
I2
sVeet
p5543
I176
sVder
p5544
I90
sVaan
p5545
I2
sVeep
p5546
I91
sNI857
sVeer
p5547
I15
sVsha
p5548
I2
sVain
p5549
I4
sVeek
p5550
I5
sVslk
p5551
I1
sVshi
p5552
I9
sVbal
p5553
I4
sVgni
p5554
I2
sVini
p5555
I2
sVand
p5556
I1
sVane
p5557
I1
sVrva
p5558
I1
sVeev
p5559
I4
sVana
p5560
I3
sVran
p5561
I2
sVrit
p5562
I1
sVnur
p5563
I1
sVani
p5564
I8
sVnna
p5565
I1
sVant
p5566
I10
sVrat
p5567
I3
sVavi
p5568
I3
sVine
p5569
I1
sVkha
p5570
I1
sVhty
p5571
I2
sVdhi
p5572
I1
sVabh
p5573
I7
sVdha
p5574
I1
sVnam
p5575
I1
sVeen
p5576
I23
sVtij
p5577
I1
sVdhu
p5578
I2
sVyot
p5579
I3
sVpal
p5580
I10
sVesh
p5581
I3
sVmed
p5582
I1
sVmar
p5583
I1
sVjot
p5584
I11
sVhbu
p5585
I2
sVika
p5586
I15
sVhal
p5587
I1
sVhan
p5588
I3
sVati
p5589
I1
sVuru
p5590
I2
sVish
p5591
I1
sVthi
p5592
I1
sVdra
p5593
I2
sVtra
p5594
I2
sVssh
p5595
I1
stp5596
Rp5597
sg46
I510
sg47
F1751.0
sbs(g12
g1429
tp5598
g0
(g17
g2
Ntp5599
Rp5600
(dp5601
g21
F0.5
sg22
I1496
sg23
g24
((dp5602
Vkshi
p5603
I8
sVmran
p5604
I1
sVhwar
p5605
I1
sVhell
p5606
I1
sVnjot
p5607
I2
sVnvir
p5608
I1
sVeeta
p5609
I2
sVrjit
p5610
I3
sVtpal
p5611
I2
sVotra
p5612
I2
sVmmed
p5613
I1
sVnian
p5614
I1
sVossh
p5615
I1
sVarth
p5616
I8
sVmjit
p5617
I3
sVqbal
p5618
I4
sVohan
p5619
I1
sVreet
p5620
I90
sVethi
p5621
I1
sVshek
p5622
I3
sVnshu
p5623
I5
sVmaan
p5624
I2
sVewak
p5625
I1
sVndhu
p5626
I2
sVhali
p5627
I2
sVaran
p5628
I1
sVhini
p5629
I2
sVksha
p5630
I1
sVlika
p5631
I1
sVmeen
p5632
I2
sVhika
p5633
I1
sNI1086
sVheen
p5634
I2
sVanur
p5635
I1
sVnbir
p5636
I2
sVwane
p5637
I1
sVshty
p5638
I2
sVhain
p5639
I1
sVndra
p5640
I2
sVdeep
p5641
I47
sVrpal
p5642
I4
sVadha
p5643
I1
sVumar
p5644
I1
sVljit
p5645
I3
sVhavi
p5646
I1
sVepal
p5647
I2
sVjyot
p5648
I3
sVingh
p5649
I5
sVnjit
p5650
I3
sVhish
p5651
I1
sVleen
p5652
I2
sVjali
p5653
I1
sVanka
p5654
I9
sVkaur
p5655
I8
sVhand
p5656
I1
sVmokl
p5657
I2
sVhyap
p5658
I2
sVngni
p5659
I2
sVerat
p5660
I2
sVweep
p5661
I2
sVirat
p5662
I1
sVhant
p5663
I2
sVnder
p5664
I87
sVpika
p5665
I2
sVveer
p5666
I2
sVrika
p5667
I1
sVjeet
p5668
I35
sVikha
p5669
I1
sVjeev
p5670
I1
sVmani
p5671
I1
sVveen
p5672
I1
sVhjot
p5673
I7
stp5674
Rp5675
sg46
I647
sg47
F1819.5
sbs(g11
g2890
tp5676
g0
(g17
g2
Ntp5677
Rp5678
(dp5679
g21
F0.5
sg22
I1461
sg23
g24
((dp5680
I1
I14
sI2
I33
sI3
I22
sI4
I131
sI5
I299
sI6
I339
sI7
I249
sI8
I211
sI9
I94
sI10
I41
sI11
I16
sI12
I3
sI13
I5
sI14
I4
stp5681
Rp5682
sg46
I19
sg47
F1470.5
sbs(g12
g962
tp5683
g0
(g17
g2
Ntp5684
Rp5685
(dp5686
g21
F0.5
sg22
I1496
sg23
g24
((dp5687
Vgu
p5688
I54
sVch
p5689
I16
sVca
p5690
I2
sVge
p5691
I3
sVga
p5692
I23
sVgo
p5693
I3
sVcv
p5694
I2
sVgi
p5695
I2
sVad
p5696
I5
sVpr
p5697
I56
sVle
p5698
I2
sVla
p5699
I11
sVlo
p5700
I2
sVtu
p5701
I2
sVli
p5702
I2
sVai
p5703
I1
sVlu
p5704
I1
sVav
p5705
I1
sVti
p5706
I3
sVte
p5707
I2
sVpo
p5708
I10
sVta
p5709
I20
sVdo
p5710
I1
sVhy
p5711
I1
sVdh
p5712
I5
sVdi
p5713
I17
sVya
p5714
I4
sVde
p5715
I32
sVda
p5716
I19
sVhk
p5717
I1
sVhi
p5718
I6
sVpu
p5719
I7
sVha
p5720
I50
sVis
p5721
I4
sVhe
p5722
I8
sVme
p5723
I8
sVma
p5724
I86
sVmo
p5725
I15
sVmi
p5726
I5
sVas
p5727
I20
sNI23
sVur
p5728
I2
sVmu
p5729
I7
sVku
p5730
I15
sVmr
p5731
I2
sVud
p5732
I1
sVaa
p5733
I5
sVva
p5734
I22
sVab
p5735
I4
sVve
p5736
I3
sVek
p5737
I1
sViq
p5738
I2
sVvi
p5739
I29
sVak
p5740
I6
sVaj
p5741
I5
sVam
p5742
I63
sVal
p5743
I2
sVan
p5744
I39
sVap
p5745
I4
sVvr
p5746
I1
sVar
p5747
I26
sVat
p5748
I1
sVin
p5749
I9
sVev
p5750
I1
sVes
p5751
I3
sVjy
p5752
I7
sVru
p5753
I8
sVbh
p5754
I7
sVyo
p5755
I4
sVkr
p5756
I2
sVpa
p5757
I42
sVne
p5758
I20
sVre
p5759
I3
sVra
p5760
I98
sVro
p5761
I11
sVri
p5762
I27
sVbe
p5763
I2
sVba
p5764
I19
sVni
p5765
I33
sVju
p5766
I1
sVjp
p5767
I1
sVbi
p5768
I6
sVjo
p5769
I3
sVji
p5770
I8
sVje
p5771
I3
sVja
p5772
I68
sVsp
p5773
I1
sVum
p5774
I3
sVka
p5775
I51
sVkd
p5776
I1
sVki
p5777
I9
sVkh
p5778
I5
sVko
p5779
I2
sVob
p5780
I2
sVsu
p5781
I52
sVks
p5782
I1
sVsj
p5783
I1
sVsi
p5784
I28
sVsh
p5785
I32
sVso
p5786
I19
sVsm
p5787
I1
sVna
p5788
I31
sVsa
p5789
I86
sVsw
p5790
I3
sVse
p5791
I6
sVho
p5792
I1
stp5793
Rp5794
sg46
I247
sg47
F1619.5
sbs(g8
g1582
tp5795
g0
(g17
g2
Ntp5796
Rp5797
(dp5798
g21
F0.5
sg22
I6239
sg23
g24
((dp5799
Vlly
p5800
I7
sVoju
p5801
I1
sVali
p5802
I12
sVrti
p5803
I2
sVrth
p5804
I3
sVpta
p5805
I1
sVala
p5806
I30
sVosh
p5807
I38
sVlli
p5808
I10
sVlla
p5809
I6
sVose
p5810
I4
sVlle
p5811
I2
sVnga
p5812
I2
sVaji
p5813
I3
sVjvr
p5814
I1
sVies
p5815
I1
sVngh
p5816
I3
sVjan
p5817
I11
sVvee
p5818
I2
sVhri
p5819
I14
sViel
p5820
I1
sVvel
p5821
I6
sVhra
p5822
I13
sVhit
p5823
I1
sVira
p5824
I1
sVhik
p5825
I25
sVhil
p5826
I6
sVdya
p5827
I1
sVhin
p5828
I1
sVshp
p5829
I1
sVhya
p5830
I9
sVshr
p5831
I1
sVema
p5832
I2
sVtro
p5833
I2
sVtra
p5834
I9
sVeva
p5835
I3
sVsha
p5836
I38
sVban
p5837
I2
sVshi
p5838
I4
sVbal
p5839
I2
sVree
p5840
I25
sVael
p5841
I2
sVars
p5842
I1
sVary
p5843
I2
sVted
p5844
I2
sVhti
p5845
I1
sVodh
p5846
I1
sVara
p5847
I15
sVrma
p5848
I2
sVard
p5849
I2
sVare
p5850
I2
sVari
p5851
I25
sVjni
p5852
I1
sVabh
p5853
I2
sVabu
p5854
I16
sVaby
p5855
I2
sVera
p5856
I10
sVmed
p5857
I25
sVikp
p5858
I2
sVika
p5859
I33
sVfgh
p5860
I2
sVley
p5861
I2
sVket
p5862
I2
sVker
p5863
I2
sVxmi
p5864
I9
sVila
p5865
I9
sVdru
p5866
I2
sVili
p5867
I5
sVdri
p5868
I2
sVuna
p5869
I5
sVeta
p5870
I4
sVdra
p5871
I28
sVuni
p5872
I1
sVeth
p5873
I15
sVeti
p5874
I3
sVhvi
p5875
I1
sVand
p5876
I7
sVhve
p5877
I2
sVsai
p5878
I2
sVapu
p5879
I2
sVrur
p5880
I2
sVana
p5881
I61
sVeya
p5882
I3
sVore
p5883
I9
sVayi
p5884
I1
sVaya
p5885
I4
sVyap
p5886
I2
sVyas
p5887
I1
sVyar
p5888
I1
sVyam
p5889
I2
sVran
p5890
I45
sVyan
p5891
I14
sVfer
p5892
I6
sVchu
p5893
I1
sVyak
p5894
I6
sVyaa
p5895
I2
sVnka
p5896
I18
sVyes
p5897
I2
sVhmy
p5898
I2
sVnki
p5899
I2
sVoon
p5900
I2
sVgar
p5901
I3
sVgan
p5902
I6
sVgam
p5903
I6
sVhmi
p5904
I41
sVoor
p5905
I2
sVsad
p5906
I13
sVhma
p5907
I5
sViya
p5908
I32
sViba
p5909
I4
sVder
p5910
I5
sVdes
p5911
I3
sVdev
p5912
I1
sVulu
p5913
I2
sVcvk
p5914
I1
sVula
p5915
I21
sVini
p5916
I65
sVsri
p5917
I3
sViva
p5918
I2
sVwka
p5919
I2
sVkya
p5920
I1
sVavi
p5921
I30
sVkha
p5922
I3
sVtal
p5923
I2
sVtam
p5924
I3
sVtan
p5925
I5
sVava
p5926
I5
sVena
p5927
I24
sVbhi
p5928
I4
sVeni
p5929
I5
sVdha
p5930
I11
sVrya
p5931
I12
sVent
p5932
I2
sVnya
p5933
I31
sVpal
p5934
I4
sVrna
p5935
I4
sVmas
p5936
I1
sVmar
p5937
I127
sVsna
p5938
I1
sVmad
p5939
I6
sVmah
p5940
I1
sVmal
p5941
I1
sVman
p5942
I11
sVrai
p5943
I2
sVthy
p5944
I24
sVthu
p5945
I1
sVegi
p5946
I2
sVeph
p5947
I2
sVnah
p5948
I2
sVtha
p5949
I166
sVepa
p5950
I2
sVtty
p5951
I8
sVith
p5952
I25
sVdas
p5953
I6
sVyee
p5954
I1
sVita
p5955
I9
sVtti
p5956
I1
sVgde
p5957
I1
sVity
p5958
I2
sVfff
p5959
I2
sVtta
p5960
I2
sVima
p5961
I17
sVhal
p5962
I4
sVham
p5963
I16
sVhan
p5964
I48
sVela
p5965
I3
sVhim
p5966
I2
sVhap
p5967
I1
sVhar
p5968
I23
sVadh
p5969
I2
sVhav
p5970
I1
sVadi
p5971
I2
sVami
p5972
I7
sVtri
p5973
I5
sVevi
p5974
I19
sVama
p5975
I13
sVdan
p5976
I12
sVamy
p5977
I6
sVmon
p5978
I2
sVdar
p5979
I8
sVmol
p5980
I5
sVbar
p5981
I1
sVamu
p5982
I1
sVeet
p5983
I4
sVeev
p5984
I3
sVeep
p5985
I41
sNI3419
sVeer
p5986
I10
sVeel
p5987
I1
sVeen
p5988
I33
sVeek
p5989
I4
sVeej
p5990
I2
sVeeb
p5991
I2
sVlan
p5992
I1
sVees
p5993
I1
sVmha
p5994
I2
sVick
p5995
I7
sVddy
p5996
I18
sVest
p5997
I1
sVizh
p5998
I2
sVeja
p5999
I2
sVice
p6000
I2
sVkmv
p6001
I2
sVren
p6002
I2
sVesa
p6003
I2
sVaja
p6004
I12
sVesh
p6005
I123
sVass
p6006
I2
sVasu
p6007
I2
sVrla
p6008
I3
sVnti
p6009
I5
sVnth
p6010
I48
sVian
p6011
I3
sVnta
p6012
I2
sVasi
p6013
I3
sVash
p6014
I31
sVndi
p6015
I4
sVndh
p6016
I1
sVata
p6017
I5
sVnda
p6018
I4
sVidu
p6019
I4
sVath
p6020
I74
sVati
p6021
I18
sVish
p6022
I30
sVacv
p6023
I2
sVndu
p6024
I1
sVida
p6025
I2
sVppa
p6026
I8
sVona
p6027
I1
sVson
p6028
I7
sVony
p6029
I1
sVyya
p6030
I3
sVhev
p6031
I2
sVwal
p6032
I1
sVvan
p6033
I9
sViah
p6034
I1
sVher
p6035
I3
sVyil
p6036
I2
sVhee
p6037
I2
sVton
p6038
I2
sVvas
p6039
I18
sVhen
p6040
I3
sVwar
p6041
I4
sVhek
p6042
I2
sVeah
p6043
I3
sVrsh
p6044
I1
sVeal
p6045
I1
sVjun
p6046
I1
sVuda
p6047
I2
sVudi
p6048
I5
sVnce
p6049
I2
sVaad
p6050
I1
sVcia
p6051
I1
sVodi
p6052
I1
sVzhi
p6053
I4
sVlvi
p6054
I2
sVsty
p6055
I2
sVraf
p6056
I3
sVrag
p6057
I2
sVohn
p6058
I1
sVsan
p6059
I14
sVsam
p6060
I1
sVsal
p6061
I2
sVbha
p6062
I4
sVrao
p6063
I8
sVram
p6064
I12
sVraj
p6065
I69
sVani
p6066
I54
sVnna
p6067
I3
sVank
p6068
I4
sVant
p6069
I11
sVanu
p6070
I3
sVlya
p6071
I1
sVoda
p6072
I2
sVind
p6073
I6
sVine
p6074
I6
sVing
p6075
I1
sVina
p6076
I9
sVlie
p6077
I2
sVnak
p6078
I1
sVlin
p6079
I3
sVnan
p6080
I32
sVhgp
p6081
I2
sVnam
p6082
I7
sVtil
p6083
I2
sVtin
p6084
I1
sVnav
p6085
I2
sViga
p6086
I1
sVgav
p6087
I1
sVnaz
p6088
I2
sVall
p6089
I1
sVthi
p6090
I101
sVkah
p6091
I1
sVtya
p6092
I1
sVkam
p6093
I4
sVkar
p6094
I36
sVhna
p6095
I47
sVhnh
p6096
I2
sVuri
p6097
I14
sVna,
p6098
I2
sVuja
p6099
I4
sVuru
p6100
I3
sVaju
p6101
I5
sVoop
p6102
I1
stp6103
Rp6104
sg46
I510
sg47
F6494.0
sbs(g11
g15
tp6105
g0
(g17
g2
Ntp6106
Rp6107
(dp6108
g21
F0.5
sg22
I1461
sg23
g24
((dp6109
g56
I15
sg26
I399
sg27
I28
sg28
I29
sg29
I7
sg1576
I4
sg30
I157
sg31
I55
sg32
I48
sg33
I4
sg34
I38
sg35
I63
sNI200
sg36
I97
sg37
I42
sg38
I14
sg39
I60
sg40
I28
sg41
I105
sg42
I22
sg43
I40
sg1579
I6
stp6110
Rp6111
sg46
I25
sg47
F1473.5
sbs(g11
g527
tp6112
g0
(g17
g2
Ntp6113
Rp6114
(dp6115
g21
F0.5
sg22
I1461
sg23
g24
((dp6116
Vroh
p6117
I2
sValo
p6118
I1
sValk
p6119
I2
sVron
p6120
I2
sVale
p6121
I2
sVala
p6122
I5
sVroq
p6123
I1
sVros
p6124
I2
sValp
p6125
I4
sVkun
p6126
I1
sVjat
p6127
I1
sVsuu
p6128
I1
sVjan
p6129
I3
sVjah
p6130
I2
sVjai
p6131
I4
sVven
p6132
I1
sVjag
p6133
I1
sVfar
p6134
I5
sVhim
p6135
I2
sVdil
p6136
I2
sVshr
p6137
I9
sVbar
p6138
I2
sVshu
p6139
I8
sVshw
p6140
I2
sVshy
p6141
I2
sVcma
p6142
I1
sVupa
p6143
I2
sVsha
p6144
I22
sVbad
p6145
I1
sVbab
p6146
I2
sVshe
p6147
I4
sVban
p6148
I2
sVshi
p6149
I18
sVree
p6150
I3
sVdip
p6151
I11
sVsho
p6152
I7
sVarp
p6153
I13
sVaru
p6154
I8
sVted
p6155
I2
sVnup
p6156
I3
sVara
p6157
I2
sVarc
p6158
I2
sVarg
p6159
I4
sVari
p6160
I12
sVark
p6161
I3
sVsek
p6162
I1
sVarn
p6163
I8
sVaro
p6164
I3
sVsug
p6165
I1
sVabb
p6166
I2
sVsud
p6167
I14
sVsuc
p6168
I3
sVsub
p6169
I31
sVabh
p6170
I12
sVsun
p6171
I3
sVsum
p6172
I18
sVnee
p6173
I2
sVsuk
p6174
I2
sVsuj
p6175
I9
sVsuv
p6176
I7
sVabr
p6177
I1
sVsut
p6178
I2
sVsus
p6179
I15
sVsur
p6180
I11
sVsup
p6181
I7
sVlun
p6182
I2
sVmee
p6183
I2
sVmeg
p6184
I2
sVjoy
p6185
I10
sVtus
p6186
I1
sVmeh
p6187
I1
sVtuh
p6188
I8
sVtul
p6189
I1
sVkey
p6190
I2
sVkes
p6191
I1
sVjay
p6192
I4
sVbon
p6193
I2
sVaka
p6194
I3
sVbhi
p6195
I2
sVvik
p6196
I1
sVpou
p6197
I7
sVpij
p6198
I1
sVapu
p6199
I1
sVvis
p6200
I2
sVpol
p6201
I2
sVviv
p6202
I2
sVrab
p6203
I1
sVapa
p6204
I2
sVrup
p6205
I6
sVsan
p6206
I41
sVcha
p6207
I12
sVayo
p6208
I1
sVpin
p6209
I4
sVswa
p6210
I7
sVchi
p6211
I2
sVtas
p6212
I3
sVaya
p6213
I2
sVyas
p6214
I2
sVcho
p6215
I1
sVran
p6216
I6
sVpur
p6217
I2
sVpro
p6218
I9
sVays
p6219
I1
sVraj
p6220
I29
sVgau
p6221
I5
sVgar
p6222
I2
sVani
p6223
I15
sVrah
p6224
I8
sVant
p6225
I3
sVpiy
p6226
I3
sVcas
p6227
I1
sVsre
p6228
I3
sVsay
p6229
I9
sVdev
p6230
I4
sVdeb
p6231
I39
sVdee
p6232
I8
sVtap
p6233
I7
sVtar
p6234
I4
sVriy
p6235
I3
sVrit
p6236
I8
sVris
p6237
I4
sVann
p6238
I1
sVrin
p6239
I1
sVrim
p6240
I4
sVrij
p6241
I2
sVavi
p6242
I11
sVtab
p6243
I1
sVtam
p6244
I1
sVtan
p6245
I14
sVava
p6246
I2
sVbik
p6247
I3
sVpap
p6248
I5
sVpar
p6249
I20
sVmai
p6250
I2
sVrak
p6251
I2
sVpay
p6252
I7
sVdha
p6253
I3
sVama
p6254
I5
sVish
p6255
I4
sVsid
p6256
I2
sVpal
p6257
I4
sVdhr
p6258
I5
sVafr
p6259
I2
sVnik
p6260
I1
sVmar
p6261
I3
sVnil
p6262
I11
sVlak
p6263
I2
sVmay
p6264
I4
sVkir
p6265
I3
sVsni
p6266
I4
sVmad
p6267
I7
sVnir
p6268
I10
sVmah
p6269
I4
sVmam
p6270
I5
sVmal
p6271
I2
sVmil
p6272
I4
sVamz
p6273
I1
sVujj
p6274
I3
sVzee
p6275
I3
sVsam
p6276
I13
sVjin
p6277
I1
sVjit
p6278
I2
sVimr
p6279
I2
sVhas
p6280
I3
sVadi
p6281
I2
sVami
p6282
I23
sVmoy
p6283
I1
sVnoo
p6284
I5
sVbij
p6285
I5
sVaml
p6286
I3
sVbih
p6287
I1
sVmos
p6288
I2
sVbid
p6289
I1
sVbib
p6290
I2
sVmou
p6291
I19
sVmoh
p6292
I4
sVmon
p6293
I22
sVbiv
p6294
I4
sVbis
p6295
I18
sVbip
p6296
I8
sVpoo
p6297
I2
sNI47
sVoin
p6298
I2
sVoli
p6299
I2
sVsne
p6300
I3
sVdib
p6301
I3
sVgol
p6302
I3
sVnib
p6303
I2
sVres
p6304
I2
sVsmr
p6305
I2
sVrek
p6306
I2
sVajo
p6307
I1
sVgou
p6308
I6
sVaja
p6309
I2
sVesh
p6310
I2
sVrun
p6311
I1
sVpuj
p6312
I3
sVrum
p6313
I3
sVrub
p6314
I6
sVruc
p6315
I2
sVrud
p6316
I2
sVqua
p6317
I2
sVrus
p6318
I2
sVasi
p6319
I2
sVash
p6320
I12
sVpup
p6321
I1
sVasm
p6322
I2
sVpus
p6323
I2
sVsra
p6324
I2
sVata
p6325
I3
sVsri
p6326
I3
sVchh
p6327
I2
sVkri
p6328
I5
sVatr
p6329
I2
sVbai
p6330
I3
sVzul
p6331
I2
sVsob
p6332
I6
sVzah
p6333
I2
sVsof
p6334
I1
sVsom
p6335
I3
sVson
p6336
I9
sVlat
p6337
I4
sVsou
p6338
I49
sVsov
p6339
I3
sVwal
p6340
I1
sVvan
p6341
I3
sVkon
p6342
I1
sVtor
p6343
I2
sVois
p6344
I2
sVkoy
p6345
I2
sVvar
p6346
I1
sVhem
p6347
I2
sVman
p6348
I19
sVkou
p6349
I2
sVnur
p6350
I3
sVhur
p6351
I2
sVbub
p6352
I1
sVeap
p6353
I1
sVbud
p6354
I2
sViqu
p6355
I1
sVutt
p6356
I2
sVraf
p6357
I2
sVane
p6358
I2
sVsai
p6359
I6
sVsah
p6360
I5
sVpra
p6361
I18
sVana
p6362
I12
sVbho
p6363
I2
sVsal
p6364
I7
sVbha
p6365
I2
sVsab
p6366
I11
sVsaa
p6367
I1
sVram
p6368
I2
sVpri
p6369
I28
sVkhu
p6370
I1
sVanj
p6371
I3
sVank
p6372
I7
sVrav
p6373
I1
sVanu
p6374
I13
sVrat
p6375
I7
sVanw
p6376
I2
sVkho
p6377
I2
sVind
p6378
I11
sVsar
p6379
I2
sVsap
p6380
I2
sVbhu
p6381
I1
sVsau
p6382
I6
sVsat
p6383
I12
sVnab
p6384
I6
sVeja
p6385
I2
sVkis
p6386
I1
sVpre
p6387
I5
sVmin
p6388
I2
sVnaj
p6389
I1
sVnam
p6390
I1
sVtil
p6391
I2
sVnas
p6392
I2
sVnat
p6393
I2
sVmis
p6394
I5
sVnay
p6395
I2
sVmit
p6396
I1
sVliz
p6397
I2
sVkak
p6398
I1
sVkan
p6399
I4
sVkam
p6400
I8
sVkas
p6401
I2
sVkar
p6402
I1
sVkau
p6403
I1
sVabd
p6404
I4
sVkay
p6405
I2
sVagn
p6406
I2
sVmri
p6407
I1
sVdiy
p6408
I2
stp6409
Rp6410
sg46
I1064
sg47
F1993.0
sbs(g8
g962
tp6411
g0
(g17
g2
Ntp6412
Rp6413
(dp6414
g21
F0.5
sg22
I6239
sg23
g24
((dp6415
Vgu
p6416
I25
sVgs
p6417
I2
sVgr
p6418
I5
sVis
p6419
I6
sVgy
p6420
I1
sVge
p6421
I17
sVga
p6422
I39
sVgo
p6423
I41
sVgl
p6424
I2
sVgj
p6425
I1
sVgi
p6426
I34
sVgh
p6427
I4
sVle
p6428
I13
sVla
p6429
I92
sVlo
p6430
I13
sVtu
p6431
I5
sVtr
p6432
I6
sVli
p6433
I40
sVto
p6434
I5
sVlu
p6435
I2
sVth
p6436
I35
sVti
p6437
I22
sVte
p6438
I17
sVta
p6439
I24
sVdo
p6440
I4
sVdh
p6441
I42
sVdi
p6442
I75
sVya
p6443
I30
sVde
p6444
I77
sVye
p6445
I3
sVda
p6446
I35
sVdu
p6447
I9
sVyu
p6448
I9
sVds
p6449
I2
sVdp
p6450
I2
sNI442
sVml
p6451
I2
sVsp
p6452
I5
sVel
p6453
I7
sVen
p6454
I4
sVed
p6455
I2
sVec
p6456
I1
sVeb
p6457
I1
sVus
p6458
I8
sVvi
p6459
I231
sVzu
p6460
I2
sVev
p6461
I1
sVep
p6462
I2
sVes
p6463
I4
sVjy
p6464
I13
sVru
p6465
I8
sVre
p6466
I103
sVra
p6467
I419
sVbm
p6468
I2
sVro
p6469
I44
sVri
p6470
I19
sVbe
p6471
I12
sVba
p6472
I69
sVbl
p6473
I5
sVju
p6474
I5
sVbo
p6475
I11
sVbh
p6476
I58
sVbi
p6477
I27
sVbu
p6478
I2
sVjo
p6479
I28
sVji
p6480
I53
sVbr
p6481
I6
sVjd
p6482
I1
sVje
p6483
I29
sVss
p6484
I2
sVja
p6485
I89
sVom
p6486
I3
sVol
p6487
I1
sVty
p6488
I1
sVob
p6489
I2
sVoz
p6490
I1
sVoy
p6491
I1
sVck
p6492
I2
sVaa
p6493
I12
sVch
p6494
I90
sVcm
p6495
I2
sVcl
p6496
I2
sVca
p6497
I4
sVxa
p6498
I2
sVce
p6499
I2
sVxy
p6500
I1
sVcp
p6501
I1
sVve
p6502
I66
sVpr
p6503
I272
sVpu
p6504
I27
sVpy
p6505
I1
sVby
p6506
I2
sVpa
p6507
I59
sVpe
p6508
I6
sVph
p6509
I6
sVpi
p6510
I4
sVpo
p6511
I19
sVir
p6512
I5
sVhr
p6513
I2
sVka
p6514
I184
sVal
p6515
I20
sVhi
p6516
I3
sVho
p6517
I3
sVha
p6518
I60
sVhe
p6519
I13
sVme
p6520
I34
sVma
p6521
I226
sVut
p6522
I1
sVmo
p6523
I59
sVmi
p6524
I23
sVup
p6525
I1
sVmk
p6526
I1
sVmu
p6527
I62
sVul
p6528
I2
sVun
p6529
I9
sVms
p6530
I2
sVmr
p6531
I2
sVud
p6532
I10
sVmy
p6533
I2
sVub
p6534
I1
sViy
p6535
I1
sVva
p6536
I61
sVab
p6537
I34
sVad
p6538
I16
sVai
p6539
I11
sVah
p6540
I1
sVak
p6541
I20
sVaj
p6542
I15
sVam
p6543
I44
sVvm
p6544
I2
sVan
p6545
I213
sVvp
p6546
I1
sVap
p6547
I4
sVvr
p6548
I2
sVar
p6549
I122
sVil
p6550
I2
sVav
p6551
I7
sVay
p6552
I4
sVvy
p6553
I3
sVib
p6554
I1
sVas
p6555
I64
sVif
p6556
I1
sVni
p6557
I98
sVyo
p6558
I7
sVnn
p6559
I2
sVno
p6560
I6
sVna
p6561
I157
sVne
p6562
I29
sVfr
p6563
I4
sVku
p6564
I31
sVfa
p6565
I12
sVfe
p6566
I5
sVfi
p6567
I4
sVhy
p6568
I1
sVsa
p6569
I370
sVnm
p6570
I2
sVum
p6571
I12
sVsy
p6572
I5
sVin
p6573
I9
sVke
p6574
I14
sVkk
p6575
I1
sVsr
p6576
I136
sVki
p6577
I35
sVkh
p6578
I5
sVko
p6579
I16
sVsv
p6580
I1
sVsu
p6581
I243
sVst
p6582
I8
sVdr
p6583
I3
sVkr
p6584
I31
sVsi
p6585
I80
sVsh
p6586
I300
sVso
p6587
I75
sVsn
p6588
I17
sVsm
p6589
I4
sVat
p6590
I17
sVky
p6591
I2
sVsf
p6592
I2
sVsg
p6593
I2
sVsw
p6594
I43
sVse
p6595
I50
sVsd
p6596
I1
stp6597
Rp6598
sg46
I247
sg47
F6362.5
sbs(g12
g2890
tp6599
g0
(g17
g2
Ntp6600
Rp6601
(dp6602
g21
F0.5
sg22
I1496
sg23
g24
((dp6603
I1
I23
sI2
I5
sI3
I23
sI4
I125
sI5
I357
sI6
I324
sI7
I229
sI8
I228
sI9
I115
sI10
I35
sI11
I10
sI12
I8
sI13
I8
sI14
I2
sI15
I4
stp6604
Rp6605
sg46
I19
sg47
F1505.5
sbs(g8
g59
tp6606
g0
(g17
g2
Ntp6607
Rp6608
(dp6609
g21
F0.5
sg22
I6239
sg23
g24
((dp6610
Vvang
p6611
I1
sVabir
p6612
I4
sVabis
p6613
I1
sVbere
p6614
I3
sVsuni
p6615
I35
sVsunn
p6616
I2
sVabil
p6617
I1
sVsund
p6618
I13
sVsune
p6619
I13
sVkumu
p6620
I1
sVrizw
p6621
I3
sVlijj
p6622
I1
sVliji
p6623
I5
sVlijo
p6624
I3
sVswat
p6625
I16
sVswap
p6626
I11
sVkuma
p6627
I20
sVbika
p6628
I2
sVomhe
p6629
I1
sVsona
p6630
I4
sVvasi
p6631
I1
sVdele
p6632
I2
sVahme
p6633
I1
sVrish
p6634
I1
sVremy
p6635
I7
sVsoni
p6636
I1
sVhema
p6637
I11
sVdelm
p6638
I2
sVdels
p6639
I2
sVvere
p6640
I2
sVjack
p6641
I2
sVdelv
p6642
I1
sVbeva
p6643
I1
sVkudu
p6644
I1
sVvasu
p6645
I2
sVsant
p6646
I47
sVsanu
p6647
I2
sVsanr
p6648
I2
sVanas
p6649
I2
sVsang
p6650
I25
sVsand
p6651
I37
sVsane
p6652
I1
sVlach
p6653
I2
sVsana
p6654
I6
sVanan
p6655
I24
sVsano
p6656
I4
sVsanj
p6657
I15
sVsank
p6658
I5
sVchet
p6659
I12
sVratr
p6660
I2
sVmila
p6661
I1
sVpasu
p6662
I1
sVnain
p6663
I2
sVgugg
p6664
I1
sVratn
p6665
I1
sVrath
p6666
I9
sVbmen
p6667
I2
sVnanc
p6668
I6
sVnand
p6669
I19
sVguna
p6670
I7
sVmogi
p6671
I2
sVamul
p6672
I2
sVasiv
p6673
I1
sVasis
p6674
I1
sVamud
p6675
I1
sViran
p6676
I1
sVhasi
p6677
I1
sVvall
p6678
I2
sVvala
p6679
I2
sVsuga
p6680
I7
sVjatl
p6681
I1
sVpath
p6682
I1
sVanee
p6683
I13
sVbhuv
p6684
I4
sVrazi
p6685
I2
sVbhuk
p6686
I2
sVreka
p6687
I2
sVvign
p6688
I11
sVrekh
p6689
I11
sVsoga
p6690
I1
sVvigh
p6691
I2
sVhima
p6692
I2
sVdhul
p6693
I2
sVbyre
p6694
I1
sVkhaj
p6695
I1
sVrafn
p6696
I1
sVbhik
p6697
I2
sVarmu
p6698
I1
sVkhag
p6699
I2
sVbask
p6700
I2
sVsush
p6701
I8
sVbyne
p6702
I1
sVkhas
p6703
I2
sVtell
p6704
I2
sVapar
p6705
I3
sVteen
p6706
I1
sVkomp
p6707
I1
sVabra
p6708
I2
sVmusa
p6709
I2
sVswar
p6710
I2
sVkoma
p6711
I2
sVamut
p6712
I1
sVglad
p6713
I2
sVamri
p6714
I5
sVmaly
p6715
I1
sVjoic
p6716
I1
sVubai
p6717
I1
sVmall
p6718
I6
sVmali
p6719
I1
sVroop
p6720
I9
sVamru
p6721
I4
sVroos
p6722
I2
sVmala
p6723
I5
sValbi
p6724
I4
sVponr
p6725
I2
sVboga
p6726
I5
sVsrut
p6727
I10
sVbunn
p6728
I2
sVsruj
p6729
I1
sVsuva
p6730
I2
sVlisa
p6731
I2
sVsath
p6732
I32
sVsati
p6733
I13
sVshar
p6734
I24
sVvasa
p6735
I5
sVadit
p6736
I4
sVyedi
p6737
I1
sVmoun
p6738
I1
sVrudr
p6739
I2
sVarch
p6740
I15
sVadin
p6741
I1
sVgidu
p6742
I2
sVgaja
p6743
I2
sVgaju
p6744
I2
sVamit
p6745
I9
sValph
p6746
I2
sVsonu
p6747
I2
sVvaru
p6748
I2
sVniki
p6749
I4
sVvars
p6750
I6
sVpant
p6751
I1
sVjaci
p6752
I1
sVrang
p6753
I10
sVvitt
p6754
I1
sVpanc
p6755
I2
sVvard
p6756
I1
sVvara
p6757
I1
sVbrin
p6758
I2
sVsony
p6759
I2
sVpank
p6760
I1
sVbrig
p6761
I1
sVnetr
p6762
I2
sVpras
p6763
I37
sVprat
p6764
I19
sValla
p6765
I1
sVprav
p6766
I49
sVlate
p6767
I26
sVprab
p6768
I23
sVlata
p6769
I2
sVprad
p6770
I24
sVprak
p6771
I15
sVpraj
p6772
I5
sVpram
p6773
I7
sVlath
p6774
I8
sVpran
p6775
I3
sVbanu
p6776
I2
sVthen
p6777
I4
sVanil
p6778
I22
sVthej
p6779
I4
sVsafe
p6780
I3
sVband
p6781
I3
sVenoc
p6782
I1
sVadri
p6783
I2
sVanit
p6784
I18
sVbann
p6785
I2
sVanis
p6786
I8
sVecre
p6787
I1
sValex
p6788
I2
sVboni
p6789
I2
sVbhav
p6790
I12
sValee
p6791
I2
sVsidd
p6792
I14
sVlucj
p6793
I2
sVnava
p6794
I6
sVlige
p6795
I1
sVnave
p6796
I28
sVhari
p6797
I41
sVnavi
p6798
I1
sVhare
p6799
I1
sVligi
p6800
I2
sVhara
p6801
I2
sVnavn
p6802
I1
sVloge
p6803
I1
sVloga
p6804
I2
sVnavy
p6805
I6
sVkoki
p6806
I1
sVkezi
p6807
I1
sVoyce
p6808
I1
sVvada
p6809
I1
sVlisi
p6810
I2
sVnity
p6811
I2
sVabhi
p6812
I13
sVinba
p6813
I1
sVreji
p6814
I8
sVreje
p6815
I5
sVniti
p6816
I1
sVnith
p6817
I21
sVbasw
p6818
I2
sVrech
p6819
I2
sVdunn
p6820
I1
sVfred
p6821
I1
sVvetr
p6822
I1
sVbasa
p6823
I4
sVatma
p6824
I1
sVange
p6825
I5
sVbiju
p6826
I6
sVsaha
p6827
I6
sVlour
p6828
I3
sVsahi
p6829
I1
sVbija
p6830
I1
sVkuna
p6831
I3
sVbije
p6832
I1
sVyall
p6833
I2
sVkund
p6834
I2
sVsuve
p6835
I2
sVsuvi
p6836
I2
sVsodh
p6837
I2
sVdaya
p6838
I1
sVdine
p6839
I13
sVdina
p6840
I1
sVmish
p6841
I1
sVbham
p6842
I1
sVnach
p6843
I1
sVbhan
p6844
I3
sVrani
p6845
I4
sVranj
p6846
I7
sVdint
p6847
I1
sVdins
p6848
I2
sVdond
p6849
I1
sVbhas
p6850
I4
sVbhar
p6851
I24
sVmiss
p6852
I4
sVjeya
p6853
I2
sVdonn
p6854
I2
sVronn
p6855
I2
sVamsa
p6856
I1
sVjoha
p6857
I1
sVmama
p6858
I4
sVjana
p6859
I9
sVjohn
p6860
I9
sVroge
p6861
I1
sVpara
p6862
I5
sVeshw
p6863
I1
sVpand
p6864
I3
sVparn
p6865
I1
sVpark
p6866
I2
sVpari
p6867
I2
sVparv
p6868
I5
sVpart
p6869
I2
sVfebi
p6870
I2
sVliju
p6871
I2
sVcheg
p6872
I2
sVdanu
p6873
I1
sVgree
p6874
I3
sVdani
p6875
I3
sVtres
p6876
I3
sVdand
p6877
I2
sVmube
p6878
I3
sVdana
p6879
I2
sVkarr
p6880
I2
sVkarp
p6881
I1
sVminn
p6882
I1
sVkaru
p6883
I5
sVmina
p6884
I1
sVesth
p6885
I3
sVadha
p6886
I2
sVseen
p6887
I2
sVseem
p6888
I7
sVkarn
p6889
I1
sVyuva
p6890
I9
sVteje
p6891
I2
sVteja
p6892
I5
sVjega
p6893
I3
sVteju
p6894
I1
sVtejr
p6895
I1
sVselv
p6896
I17
sVjuli
p6897
I2
sVamal
p6898
I6
sVgopu
p6899
I1
sVajes
p6900
I3
sVgilb
p6901
I2
sVshyj
p6902
I1
sVshyn
p6903
I2
sVshyl
p6904
I4
sVamar
p6905
I4
sVshya
p6906
I3
sVgopa
p6907
I4
sVsibi
p6908
I10
sVraam
p6909
I1
sVniha
p6910
I1
sVpuja
p6911
I3
sVgabr
p6912
I1
sVaksh
p6913
I7
sVsekh
p6914
I3
sVyang
p6915
I1
sVulla
p6916
I2
sVgund
p6917
I2
sVraav
p6918
I2
sVgola
p6919
I1
sVsaga
p6920
I3
sVgoll
p6921
I3
sVbomi
p6922
I1
sVsowk
p6923
I2
sVsowj
p6924
I2
sVsowm
p6925
I13
sVprit
p6926
I2
sVarpi
p6927
I2
sVrick
p6928
I2
sVrich
p6929
I2
sVmena
p6930
I2
sVsilp
p6931
I2
sVdhin
p6932
I2
sVdhil
p6933
I3
sVgeet
p6934
I13
sVdhir
p6935
I2
sVdhiv
p6936
I8
sVsaur
p6937
I2
sVever
p6938
I1
sVgaut
p6939
I1
sVgaur
p6940
I2
sVnant
p6941
I1
sVarya
p6942
I5
sVvini
p6943
I6
sVbles
p6944
I5
sVvina
p6945
I23
sVthya
p6946
I1
sVvine
p6947
I7
sVfaiz
p6948
I3
sVbara
p6949
I1
sVbarb
p6950
I2
sVclem
p6951
I2
sVdumm
p6952
I1
sVvinu
p6953
I3
sVpatt
p6954
I1
sVishw
p6955
I2
sVdeiv
p6956
I2
sVsain
p6957
I3
sVxavi
p6958
I2
sVsail
p6959
I2
sVsaik
p6960
I3
sVsair
p6961
I1
sVsura
p6962
I8
sVkkan
p6963
I1
sVishi
p6964
I2
sVrita
p6965
I1
sVbibi
p6966
I4
sVsolo
p6967
I2
sVsola
p6968
I1
sVsrav
p6969
I9
sVbose
p6970
I1
sVrija
p6971
I2
sVrije
p6972
I1
sVveer
p6973
I12
sVriji
p6974
I2
sValok
p6975
I1
sVthop
p6976
I2
sVmegh
p6977
I10
sVanon
p6978
I2
sViray
p6979
I1
sVriju
p6980
I1
sVpupp
p6981
I2
sVpita
p6982
I2
sVveen
p6983
I10
sVbram
p6984
I1
sVvaid
p6985
I3
sVvaib
p6986
I3
sVjaya
p6987
I30
sVravr
p6988
I2
sVnakk
p6989
I2
sVnaki
p6990
I2
sVravi
p6991
I46
sVjerr
p6992
I2
sVvais
p6993
I4
sVbavi
p6994
I2
sVtinu
p6995
I2
sVaala
p6996
I1
sVkart
p6997
I54
sVnazr
p6998
I2
sVasok
p6999
I1
sVting
p7000
I2
sVsult
p7001
I1
sVbeer
p7002
I1
sVjavv
p7003
I2
sVtina
p7004
I8
sVebin
p7005
I1
sVfiro
p7006
I3
sVarvi
p7007
I2
sVmind
p7008
I1
sVneha
p7009
I6
sVelsa
p7010
I1
sVkotr
p7011
I2
sVnaya
p7012
I4
sVvana
p7013
I2
sVmuje
p7014
I1
sVkoth
p7015
I2
sVvani
p7016
I6
sVnata
p7017
I2
sVdavi
p7018
I7
sVkota
p7019
I2
sVsuha
p7020
I5
sVtank
p7021
I1
sVgyan
p7022
I1
sVtani
p7023
I1
sVvagd
p7024
I2
sVbill
p7025
I1
sVsfkj
p7026
I2
sVtana
p7027
I2
sVtanu
p7028
I8
sVreme
p7029
I2
sVuday
p7030
I8
sVyath
p7031
I2
sVyati
p7032
I1
sVjesw
p7033
I2
sVnazl
p7034
I3
sVarav
p7035
I10
sVkarh
p7036
I1
sVjyot
p7037
I13
sVhone
p7038
I2
sVshas
p7039
I13
sVbhoo
p7040
I1
sVjips
p7041
I1
sVnikk
p7042
I1
sVnikh
p7043
I19
sVhonn
p7044
I1
sVshab
p7045
I10
sVshaf
p7046
I3
sVshaj
p7047
I3
sVshak
p7048
I3
sVshah
p7049
I2
sVshai
p7050
I8
sVshan
p7051
I15
sVshal
p7052
I10
sVsham
p7053
I16
sVhani
p7054
I1
sVfath
p7055
I5
sVgijo
p7056
I2
sVkemp
p7057
I1
sVdimp
p7058
I2
sVbhag
p7059
I3
sVhanu
p7060
I1
sVdadi
p7061
I1
sVkyla
p7062
I2
sVaish
p7063
I9
sVaisw
p7064
I2
sViffa
p7065
I1
sVkala
p7066
I10
sVjust
p7067
I2
sVkali
p7068
I5
sVkall
p7069
I4
sVkalp
p7070
I5
sVkaly
p7071
I6
sVgips
p7072
I2
sVsimn
p7073
I1
sVjose
p7074
I8
sVindu
p7075
I2
sVjosc
p7076
I1
sVjosh
p7077
I1
sVdhan
p7078
I15
sVdham
p7079
I2
sVdhar
p7080
I2
sVdhav
p7081
I1
sVsavi
p7082
I11
sVdhay
p7083
I1
sVmaya
p7084
I4
sVgovi
p7085
I3
sVarat
p7086
I2
sVkast
p7087
I2
sVshwe
p7088
I20
sVmayu
p7089
I2
sVsaje
p7090
I2
sVkasi
p7091
I6
sVkash
p7092
I2
sVarad
p7093
I2
sVkasa
p7094
I2
sVsuks
p7095
I2
sVgift
p7096
I4
sVarju
p7097
I13
sVsoma
p7098
I7
sVsome
p7099
I1
sVbrij
p7100
I2
sVpall
p7101
I6
sVjill
p7102
I1
sVpala
p7103
I1
sVsoms
p7104
I2
sVsomu
p7105
I2
sVannu
p7106
I1
sVmedi
p7107
I2
sVumes
p7108
I4
sVsaan
p7109
I2
sVveda
p7110
I3
sVniru
p7111
I1
sVanne
p7112
I2
sVprod
p7113
I2
sVanna
p7114
I5
sVbokk
p7115
I2
sVpeek
p7116
I2
sVjemi
p7117
I1
sVstef
p7118
I1
sVaadh
p7119
I1
sVsrir
p7120
I2
sVstep
p7121
I3
sVsrih
p7122
I1
sVanwa
p7123
I2
sVsrik
p7124
I15
sVsrid
p7125
I10
sVgomt
p7126
I2
sVyagn
p7127
I2
sVepsh
p7128
I2
sVthri
p7129
I1
sVsake
p7130
I2
sVjeny
p7131
I2
sVsubr
p7132
I3
sVhapp
p7133
I1
sVghan
p7134
I1
sVgopi
p7135
I6
sVdiwa
p7136
I1
sVbath
p7137
I1
sVjeni
p7138
I2
sVchtr
p7139
I2
sVsubb
p7140
I2
sVsuba
p7141
I1
sVmukk
p7142
I1
sVsubh
p7143
I6
sVsubi
p7144
I4
sVtami
p7145
I6
sVtamm
p7146
I2
sVjanu
p7147
I1
sVfizo
p7148
I1
sVlagi
p7149
I1
sVjane
p7150
I2
sVjang
p7151
I4
sVnive
p7152
I2
sVviha
p7153
I1
sVanch
p7154
I2
sVatos
p7155
I2
sVlint
p7156
I2
sVdipt
p7157
I1
sVjagd
p7158
I1
sVlino
p7159
I2
sVheat
p7160
I1
sVpiya
p7161
I1
sVling
p7162
I4
sVberl
p7163
I2
sVfahm
p7164
I1
sVlinc
p7165
I2
sVreen
p7166
I4
sVsaja
p7167
I3
sVvive
p7168
I4
sVlaya
p7169
I1
sVsupr
p7170
I5
sVsaji
p7171
I7
sVinfa
p7172
I2
sVxyza
p7173
I1
sVsyam
p7174
I4
sVmoha
p7175
I42
sVshij
p7176
I4
sVdill
p7177
I4
sVshin
p7178
I10
sVhams
p7179
I2
sVshil
p7180
I14
sVshib
p7181
I4
sVchak
p7182
I1
sVchai
p7183
I9
sVshif
p7184
I3
sVtezz
p7185
I1
sVrahm
p7186
I1
sVchar
p7187
I2
sVtosh
p7188
I1
sVrahu
p7189
I23
sVshir
p7190
I3
sVtriv
p7191
I3
sVshiv
p7192
I25
sVirsa
p7193
I3
sVdach
p7194
I1
sVnajm
p7195
I1
sVhafi
p7196
I3
sVobal
p7197
I2
sVkirt
p7198
I2
sVmohi
p7199
I1
sVtitt
p7200
I1
sVnico
p7201
I2
sVtest
p7202
I1
sVleel
p7203
I8
sVkira
p7204
I19
sVtaru
p7205
I4
sVdali
p7206
I3
sVlenn
p7207
I1
sVvahi
p7208
I2
sVgujj
p7209
I4
sVdrag
p7210
I1
sVkorr
p7211
I1
sVthar
p7212
I1
sVsoja
p7213
I2
sVvick
p7214
I4
sVlank
p7215
I1
sVsalu
p7216
I2
sVlawr
p7217
I4
sVpush
p7218
I7
sVnasi
p7219
I1
sVmedh
p7220
I2
sVyazh
p7221
I2
sVmilu
p7222
I2
sVkatt
p7223
I2
sVkath
p7224
I2
sVgjba
p7225
I1
sVhris
p7226
I2
sVprij
p7227
I1
sVgang
p7228
I4
sVgand
p7229
I1
sVgane
p7230
I8
sVkata
p7231
I5
sVgowt
p7232
I9
sVgowr
p7233
I1
sVjiji
p7234
I2
sVseni
p7235
I2
sVjijo
p7236
I4
sVjije
p7237
I4
sVsend
p7238
I3
sVarie
p7239
I2
sVtush
p7240
I2
sVjiju
p7241
I2
sVkeda
p7242
I2
sVsent
p7243
I11
sVjero
p7244
I1
sVjeri
p7245
I1
sVjere
p7246
I2
sVraje
p7247
I46
sVmlai
p7248
I2
sVjish
p7249
I5
sVgine
p7250
I2
sVunni
p7251
I7
sValim
p7252
I2
sVpriy
p7253
I47
sVmahi
p7254
I2
sVjoel
p7255
I1
sVmaha
p7256
I14
sVmahe
p7257
I23
sVaswa
p7258
I7
sVaswi
p7259
I2
sVyali
p7260
I2
sVrach
p7261
I5
sVummu
p7262
I1
sVvelm
p7263
I3
sVsouj
p7264
I2
sVnaga
p7265
I24
sVpedd
p7266
I2
sVanve
p7267
I1
sVpeda
p7268
I1
sVbakk
p7269
I3
sVvelu
p7270
I1
sVkrit
p7271
I1
sVsapn
p7272
I2
sVkris
p7273
I25
sVhyma
p7274
I1
sVsriv
p7275
I6
sVkama
p7276
I8
sVkame
p7277
I1
sVkamm
p7278
I1
sVkaml
p7279
I2
sVsind
p7280
I13
sVsine
p7281
I3
sVsinc
p7282
I1
sVajis
p7283
I2
sVakil
p7284
I1
sVajit
p7285
I7
sVsrin
p7286
I35
sVceri
p7287
I2
sVjorr
p7288
I1
sVpryn
p7289
I1
sVstev
p7290
I2
sVsabe
p7291
I2
sVrasm
p7292
I1
sVsiri
p7293
I4
sVjaff
p7294
I2
sVredd
p7295
I8
sVbeul
p7296
I1
sVvipi
p7297
I2
sVsuda
p7298
I2
sVprem
p7299
I9
sVpera
p7300
I1
sVsakk
p7301
I1
sVprej
p7302
I1
sVpree
p7303
I22
sVlaxm
p7304
I6
sVsakt
p7305
I4
sVswet
p7306
I14
sVpres
p7307
I2
sVtiru
p7308
I4
sVbabi
p7309
I2
sVbabu
p7310
I4
sVbaby
p7311
I5
sVmeha
p7312
I3
sVmeen
p7313
I11
sVsoud
p7314
I2
sVthis
p7315
I2
sVthir
p7316
I1
sVthip
p7317
I1
sVsoum
p7318
I7
sValif
p7319
I1
sVsoun
p7320
I5
sValiy
p7321
I2
sVjudy
p7322
I1
sVsabi
p7323
I3
sVthim
p7324
I1
sVthil
p7325
I1
sVsabb
p7326
I1
sVsaba
p7327
I2
sVmees
p7328
I1
sVmeer
p7329
I1
sVsude
p7330
I2
sVnema
p7331
I2
sVchir
p7332
I3
sVpawa
p7333
I1
sVsudh
p7334
I16
sVpavi
p7335
I11
sVchit
p7336
I5
sVsoup
p7337
I2
sVmuar
p7338
I1
sVchin
p7339
I4
sVrape
p7340
I1
sVpink
p7341
I1
sVvibi
p7342
I1
sVvibh
p7343
I1
sVpuru
p7344
I1
sVguru
p7345
I9
sVreva
p7346
I8
sVedwi
p7347
I2
sVnare
p7348
I17
sVpuri
p7349
I2
sVnara
p7350
I4
sVpurn
p7351
I4
sVchri
p7352
I8
sVabdu
p7353
I7
sVfran
p7354
I3
sVfarh
p7355
I1
sVdiva
p7356
I2
sVfars
p7357
I2
sVspoo
p7358
I4
sVsuch
p7359
I1
sVmuha
p7360
I16
sVbino
p7361
I3
sVissa
p7362
I2
sVdeve
p7363
I4
sVsuji
p7364
I14
sVvikr
p7365
I7
sVbind
p7366
I3
sVdevi
p7367
I10
sVkure
p7368
I2
sVsuja
p7369
I8
sVjaij
p7370
I2
sVjaik
p7371
I3
sVbinu
p7372
I4
sVnous
p7373
I5
sVdevy
p7374
I1
sVayya
p7375
I2
sVmovi
p7376
I3
sVmuth
p7377
I15
sVkone
p7378
I1
sVmutt
p7379
I1
sVbatc
p7380
I2
sVeliz
p7381
I2
sVnimi
p7382
I2
sVnimm
p7383
I4
sVroja
p7384
I2
sVavin
p7385
I6
sVshgs
p7386
I2
sVtull
p7387
I1
sVudha
p7388
I2
sVtuls
p7389
I2
sVyami
p7390
I2
sVyama
p7391
I2
sVrakh
p7392
I1
sVrake
p7393
I13
sVkish
p7394
I8
sVgudu
p7395
I2
sVnama
p7396
I1
sVterm
p7397
I1
sVdidl
p7398
I2
sVoliv
p7399
I1
sNI574
sVnamr
p7400
I4
sVsube
p7401
I1
sVterr
p7402
I2
sVkann
p7403
I11
sVkran
p7404
I3
sVgras
p7405
I2
sVtyag
p7406
I1
sVjenn
p7407
I4
sVkanc
p7408
I1
sVkana
p7409
I3
sVgire
p7410
I1
sVatal
p7411
I2
sVkant
p7412
I2
sVkanu
p7413
I1
sVgiri
p7414
I17
sVamja
p7415
I2
sVgeor
p7416
I4
sVmath
p7417
I4
sVajay
p7418
I3
sVjilj
p7419
I2
sVcarl
p7420
I1
sVyara
p7421
I1
sVpune
p7422
I3
sVammu
p7423
I1
sVmidh
p7424
I4
sVpunn
p7425
I1
sVkeer
p7426
I7
sVpuni
p7427
I2
sVdivy
p7428
I46
sVakul
p7429
I2
sVsach
p7430
I5
sVrini
p7431
I4
sVsebi
p7432
I2
sVsuyo
p7433
I1
sVvino
p7434
I34
sVsmij
p7435
I1
sVsedh
p7436
I2
sVpoth
p7437
I2
sVanur
p7438
I4
sVanus
p7439
I14
sVanup
p7440
I19
sVanuv
p7441
I2
sVthav
p7442
I1
sValag
p7443
I2
sVpadm
p7444
I3
sVthay
p7445
I2
sVdeva
p7446
I5
sVniva
p7447
I1
sVupen
p7448
I1
sVthan
p7449
I6
sVtham
p7450
I2
sVnobi
p7451
I1
sVarus
p7452
I1
sVgobi
p7453
I1
sVgaya
p7454
I17
sVyend
p7455
I2
sVbine
p7456
I2
sVjanc
p7457
I3
sVarun
p7458
I55
sVarul
p7459
I2
sVarum
p7460
I1
sVvije
p7461
I5
sVsuje
p7462
I1
sVvija
p7463
I49
sVbavj
p7464
I2
sVneet
p7465
I5
sVrenj
p7466
I3
sVviji
p7467
I7
sVneel
p7468
I9
sVzuma
p7469
I2
sVneen
p7470
I1
sVrenu
p7471
I14
sVreny
p7472
I1
sVdasa
p7473
I3
sVdasd
p7474
I1
sVghos
p7475
I2
sVsuki
p7476
I1
sVaysh
p7477
I2
sVsuka
p7478
I2
sVlill
p7479
I2
sVaash
p7480
I3
sVjahn
p7481
I4
sVjaha
p7482
I1
sVsukr
p7483
I1
sVkusu
p7484
I1
sVbets
p7485
I2
sVsure
p7486
I39
sVvisw
p7487
I2
sVvisu
p7488
I2
sVommi
p7489
I1
sVregi
p7490
I1
sVvish
p7491
I37
sVsury
p7492
I8
sVsimh
p7493
I1
sVsali
p7494
I2
sVgoku
p7495
I5
sVsale
p7496
I2
sVancy
p7497
I2
sVbade
p7498
I2
sVthot
p7499
I3
sVindi
p7500
I2
sVindh
p7501
I2
sVsalv
p7502
I2
sVraji
p7503
I3
sVrajk
p7504
I5
sVnagu
p7505
I2
sVnagr
p7506
I3
sVrajn
p7507
I3
sVraja
p7508
I41
sVbhee
p7509
I2
sVelam
p7510
I1
sVshob
p7511
I9
sVnage
p7512
I6
sVambr
p7513
I5
sVelak
p7514
I3
sVrajs
p7515
I2
sVrajr
p7516
I2
sVraju
p7517
I13
sVtira
p7518
I1
sVchha
p7519
I2
sVrasn
p7520
I1
sVneth
p7521
I4
sVrash
p7522
I25
sVleks
p7523
I4
sVkesh
p7524
I3
sVrobi
p7525
I2
sVmunn
p7526
I1
sVmuni
p7527
I2
sVabba
p7528
I1
sVbeat
p7529
I2
sVpava
p7530
I8
sVsaip
p7531
I1
sVsdfd
p7532
I1
sVniza
p7533
I1
sVvajr
p7534
I1
sVjasn
p7535
I3
sVhele
p7536
I1
sVnish
p7537
I21
sVlali
p7538
I10
sVsoor
p7539
I7
sVnisa
p7540
I3
sVlala
p7541
I1
sVniss
p7542
I2
sVgout
p7543
I2
sVgour
p7544
I1
sVsiva
p7545
I25
sVaros
p7546
I2
sVjabe
p7547
I1
sVrupe
p7548
I2
sVyash
p7549
I8
sVrupa
p7550
I2
sVradh
p7551
I6
sVambi
p7552
I2
sVarok
p7553
I1
sVjith
p7554
I8
sVhaje
p7555
I2
sVjeth
p7556
I1
sVendu
p7557
I3
sVdomm
p7558
I1
sVamee
p7559
I1
sVibra
p7560
I1
sVlava
p7561
I3
sVjobi
p7562
I2
sVmans
p7563
I2
sVmant
p7564
I3
sVramy
p7565
I15
sVramu
p7566
I2
sVramp
p7567
I2
sVramr
p7568
I2
sVmoni
p7569
I6
sVyamu
p7570
I3
sVmonu
p7571
I1
sVmand
p7572
I3
sVrami
p7573
I2
sVmang
p7574
I2
sVmani
p7575
I20
sVmanj
p7576
I59
sVramg
p7577
I2
sVrama
p7578
I22
sVramc
p7579
I1
sVvenu
p7580
I1
sVgite
p7581
I2
sVmrid
p7582
I2
sVshik
p7583
I2
sVprut
p7584
I3
sVanto
p7585
I3
sVanth
p7586
I1
sVvenn
p7587
I1
sVvenk
p7588
I29
sVgona
p7589
I1
sVsari
p7590
I11
sVsaro
p7591
I4
sVdeep
p7592
I47
sVsara
p7593
I44
sVsneh
p7594
I17
sVmari
p7595
I7
sVmart
p7596
I3
sVsary
p7597
I1
sVsese
p7598
I1
sVmage
p7599
I1
sVmars
p7600
I1
sVarth
p7601
I4
sVsarv
p7602
I1
sVmary
p7603
I3
sVrubb
p7604
I2
sVchan
p7605
I34
sVchal
p7606
I1
sVdhee
p7607
I4
sVmanu
p7608
I6
sVkave
p7609
I3
sVmega
p7610
I2
sVkava
p7611
I2
sVkavi
p7612
I11
sVmany
p7613
I2
sVkavy
p7614
I16
sVsusa
p7615
I1
sVviru
p7616
I1
sVsita
p7617
I3
sVjaga
p7618
I11
sVsusm
p7619
I4
sVthul
p7620
I2
sVnile
p7621
I2
sVrams
p7622
I3
sVvira
p7623
I2
sVanik
p7624
I5
sVsami
p7625
I2
sVmana
p7626
I5
sVsamb
p7627
I2
sVsama
p7628
I1
sVsame
p7629
I2
sVsamy
p7630
I3
sVanoo
p7631
I10
sVsamr
p7632
I2
sVgarl
p7633
I1
sVsamp
p7634
I3
sVsamv
p7635
I1
sVsamu
p7636
I3
sVmane
p7637
I4
sVyada
p7638
I2
sVsade
p7639
I2
sVbali
p7640
I2
sVsadh
p7641
I4
sVanki
p7642
I2
sVramk
p7643
I5
sVsree
p7644
I40
sVbala
p7645
I26
sVrame
p7646
I13
sVsoph
p7647
I3
sVabin
p7648
I2
sVarsh
p7649
I2
sVsyed
p7650
I1
sVphan
p7651
I6
sVkaar
p7652
I1
sVutta
p7653
I1
sVmano
p7654
I7
sVloke
p7655
I6
sVress
p7656
I2
sVresh
p7657
I17
sVresm
p7658
I2
sVpaul
p7659
I2
sVvams
p7660
I5
sVtobi
p7661
I4
sVrosl
p7662
I1
sVvidh
p7663
I6
sVrosh
p7664
I3
sVrose
p7665
I2
sVvemu
p7666
I3
sVraks
p7667
I6
sVvidy
p7668
I9
sVnath
p7669
I2
sVtijo
p7670
I2
sVreha
p7671
I2
sVnaks
p7672
I2
sVnirm
p7673
I2
sVrehn
p7674
I1
sVniro
p7675
I2
sVlaks
p7676
I27
sVvidv
p7677
I2
sVlibi
p7678
I5
sVvysa
p7679
I3
sVmyth
p7680
I2
sVdars
p7681
I7
sVreag
p7682
I2
sVdari
p7683
I2
sVsumi
p7684
I5
sVdara
p7685
I1
sVatch
p7686
I1
sVsofi
p7687
I1
sVlohi
p7688
I1
sVliki
p7689
I2
sVathi
p7690
I11
sVpyag
p7691
I1
sVkula
p7692
I1
sVnami
p7693
I1
sVfemi
p7694
I3
sVshef
p7695
I3
sVshee
p7696
I3
sVsheb
p7697
I1
sVmura
p7698
I11
sVshem
p7699
I1
sVshej
p7700
I3
sVshek
p7701
I4
sVmohe
p7702
I1
sVsher
p7703
I2
sVshes
p7704
I1
sVkola
p7705
I2
sVkoll
p7706
I2
sVmurt
p7707
I4
sVmuru
p7708
I4
sViyer
p7709
I1
sVvrin
p7710
I2
sVrohi
p7711
I19
sVnazi
p7712
I3
sVroha
p7713
I1
sValen
p7714
I1
sVmoor
p7715
I2
sVakhi
p7716
I10
sVanag
p7717
I1
sVnidh
p7718
I4
sVmitr
p7719
I2
sVtint
p7720
I2
sVmith
p7721
I3
sVmara
p7722
I1
sVashl
p7723
I2
sVusha
p7724
I8
sVasho
p7725
I11
sVashi
p7726
I3
sVasha
p7727
I7
sVjeev
p7728
I6
sVchou
p7729
I2
sVashw
p7730
I24
sVashr
p7731
I3
sVshre
p7732
I18
sVreth
p7733
I1
sVsume
p7734
I6
sVshra
p7735
I4
sVabid
p7736
I1
sVshri
p7737
I6
sVshru
p7738
I40
sVjine
p7739
I5
sVjinc
p7740
I11
sVjino
p7741
I1
sVaart
p7742
I3
sVaaru
p7743
I1
sVadhi
p7744
I4
sVsmit
p7745
I2
sVjinu
p7746
I5
sVjint
p7747
I2
sVaaro
p7748
I2
sVsiju
p7749
I2
sVunan
p7750
I2
sVghou
p7751
I1
sVmich
p7752
I3
sVmadd
p7753
I3
sVraga
p7754
I2
sVpuli
p7755
I1
sVmada
p7756
I1
sVhiro
p7757
I1
sVragh
p7758
I29
sVragi
p7759
I6
sVpula
p7760
I1
sVmadh
p7761
I25
sVavul
p7762
I1
sVragu
p7763
I2
sVsuma
p7764
I9
sVanja
p7765
I17
sVumad
p7766
I2
sVdurg
p7767
I5
sVanji
p7768
I3
sVumam
p7769
I1
sVdura
p7770
I2
sVgont
p7771
I1
sVdeel
p7772
I1
sVanju
p7773
I2
sVsijo
p7774
I1
sVyoge
p7775
I4
sVyoga
p7776
I3
sVhars
p7777
I5
sVkiru
p7778
I5
sVkrut
p7779
I2
sVpoor
p7780
I3
sVilam
p7781
I2
sVansh
p7782
I2
sVanso
p7783
I2
sVpooj
p7784
I10
sVstal
p7785
I2
sVjais
p7786
I1
sVaaka
p7787
I1
sVadar
p7788
I3
sVvadd
p7789
I2
sVmash
p7790
I2
sVkail
p7791
I2
sVsasi
p7792
I2
sVvadi
p7793
I2
sVvand
p7794
I5
stp7795
Rp7796
sg46
I2323
sg47
F7400.5
sbs(g11
g3769
tp7797
g0
(g17
g2
Ntp7798
Rp7799
(dp7800
g21
F0.5
sg22
I1461
sg23
g24
((dp7801
Vck
p7802
I3
sVia
p7803
I4
sVva
p7804
I1
sVab
p7805
I9
sVkh
p7806
I2
sVha
p7807
I42
sVty
p7808
I2
sVtt
p7809
I1
sVli
p7810
I25
sVto
p7811
I2
sVpa
p7812
I7
sVth
p7813
I5
sVti
p7814
I17
sVak
p7815
I4
sVta
p7816
I121
sVyi
p7817
I2
sVir
p7818
I5
sVyo
p7819
I5
sVdi
p7820
I6
sVya
p7821
I26
sVda
p7822
I9
sVhi
p7823
I15
sVho
p7824
I2
sVdy
p7825
I1
sVdu
p7826
I12
sVib
p7827
I3
sVme
p7828
I2
sVma
p7829
I11
sVnu
p7830
I8
sVmi
p7831
I14
sVup
p7832
I1
sNI499
sVur
p7833
I5
sVum
p7834
I1
sVul
p7835
I8
sVip
p7836
I14
sVim
p7837
I5
sVub
p7838
I1
sVaa
p7839
I1
sVel
p7840
I4
sVen
p7841
I4
sVad
p7842
I3
sVek
p7843
I8
sVaf
p7844
I3
sVee
p7845
I23
sVed
p7846
I1
sVis
p7847
I3
sVaj
p7848
I4
sVam
p7849
I23
sVal
p7850
I16
sVan
p7851
I51
sVap
p7852
I1
sVik
p7853
I10
sVar
p7854
I25
sVey
p7855
I2
sVil
p7856
I4
sVav
p7857
I16
sVay
p7858
I11
sVet
p7859
I8
sVev
p7860
I2
sVie
p7861
I3
sVep
p7862
I18
sVas
p7863
I3
sVer
p7864
I5
sVni
p7865
I18
sVaz
p7866
I4
sVno
p7867
I2
sVna
p7868
I34
sVry
p7869
I1
sVra
p7870
I15
sVit
p7871
I71
sVro
p7872
I2
sVnt
p7873
I2
sVri
p7874
I12
sVba
p7875
I5
sVvi
p7876
I2
sVbh
p7877
I1
sVbi
p7878
I3
sVbu
p7879
I1
sVhu
p7880
I5
sVon
p7881
I2
sVka
p7882
I48
sVol
p7883
I2
sVin
p7884
I2
sVki
p7885
I7
sVla
p7886
I2
sVob
p7887
I2
sVsi
p7888
I2
sVsh
p7889
I35
sVoy
p7890
I7
sVat
p7891
I9
sVov
p7892
I2
sVsa
p7893
I10
sVot
p7894
I1
stp7895
Rp7896
sg46
I205
sg47
F1563.5
sbs(g9
g962
tp7897
g0
(g17
g2
Ntp7898
Rp7899
(dp7900
g21
F0.5
sg22
I3097
sg23
g24
((dp7901
Vgu
p7902
I1
sVgr
p7903
I1
sVge
p7904
I1
sVga
p7905
I34
sVgo
p7906
I12
sVgh
p7907
I3
sVle
p7908
I2
sVla
p7909
I12
sVlo
p7910
I7
sVtu
p7911
I9
sVtr
p7912
I9
sVli
p7913
I3
sVlu
p7914
I1
sVth
p7915
I6
sVti
p7916
I1
sVte
p7917
I14
sVta
p7918
I14
sVdn
p7919
I6
sVdo
p7920
I4
sVdh
p7921
I61
sVdi
p7922
I56
sVya
p7923
I11
sVde
p7924
I41
sVye
p7925
I6
sVda
p7926
I23
sVdu
p7927
I4
sVyu
p7928
I11
sVds
p7929
I1
sVdp
p7930
I1
sNI13
sVmr
p7931
I13
sVek
p7932
I4
sVze
p7933
I1
sVza
p7934
I4
sVjy
p7935
I8
sVru
p7936
I43
sVak
p7937
I24
sVre
p7938
I17
sVra
p7939
I140
sVro
p7940
I53
sVri
p7941
I36
sVrj
p7942
I1
sVrk
p7943
I1
sVbe
p7944
I5
sVba
p7945
I6
sVwa
p7946
I2
sVbl
p7947
I1
sVju
p7948
I3
sVjw
p7949
I2
sVbh
p7950
I70
sVbi
p7951
I5
sVjo
p7952
I1
sVjh
p7953
I5
sVji
p7954
I30
sVbr
p7955
I3
sVjk
p7956
I2
sVja
p7957
I60
sVon
p7958
I1
sVom
p7959
I6
sVck
p7960
I2
sVch
p7961
I63
sVal
p7962
I10
sVve
p7963
I2
sVpr
p7964
I191
sVpu
p7965
I14
sVpa
p7966
I96
sVpi
p7967
I11
sVpo
p7968
I24
sVhr
p7969
I2
sVhu
p7970
I4
sVhi
p7971
I41
sVho
p7972
I4
sVha
p7973
I36
sVhe
p7974
I39
sVme
p7975
I33
sVma
p7976
I128
sVmb
p7977
I1
sVut
p7978
I3
sVmo
p7979
I24
sVmi
p7980
I27
sVup
p7981
I2
sVus
p7982
I1
sVur
p7983
I2
sVmu
p7984
I11
sVar
p7985
I18
sVuj
p7986
I1
sVud
p7987
I6
sVaa
p7988
I11
sVva
p7989
I47
sVab
p7990
I32
sVae
p7991
I1
sVad
p7992
I3
sVvi
p7993
I98
sVis
p7994
I2
sVaj
p7995
I21
sVam
p7996
I51
sVvm
p7997
I2
sVan
p7998
I82
sVap
p7999
I12
sVvr
p8000
I12
sVvs
p8001
I1
sVat
p8002
I15
sVav
p8003
I8
sVay
p8004
I1
sVas
p8005
I32
sVni
p8006
I137
sVyo
p8007
I13
sVna
p8008
I45
sVne
p8009
I25
sVvo
p8010
I1
sVsm
p8011
I11
sVfa
p8012
I5
sVfi
p8013
I2
sVfo
p8014
I5
sVum
p8015
I3
sVka
p8016
I41
sVke
p8017
I12
sVsr
p8018
I2
sVki
p8019
I33
sVkh
p8020
I20
sVko
p8021
I15
sVsu
p8022
I71
sVst
p8023
I5
sVkr
p8024
I27
sVsi
p8025
I9
sVsh
p8026
I148
sVso
p8027
I24
sVsn
p8028
I26
sVku
p8029
I12
sVsa
p8030
I221
sVsw
p8031
I31
sVse
p8032
I11
stp8033
Rp8034
sg46
I247
sg47
F3220.5
sbs(g10
g3769
tp8035
g0
(g17
g2
Ntp8036
Rp8037
(dp8038
g21
F0.5
sg22
I4571
sg23
g24
((dp8039
Vvi
p8040
I18
sVva
p8041
I6
sVal
p8042
I47
sVnd
p8043
I11
sVca
p8044
I2
sVce
p8045
I3
sVab
p8046
I8
sVgi
p8047
I9
sVgh
p8048
I9
sVkh
p8049
I22
sVle
p8050
I7
sVag
p8051
I13
sVla
p8052
I19
sVtt
p8053
I1
sVli
p8054
I14
sViq
p8055
I1
sVpa
p8056
I4
sVav
p8057
I54
sVth
p8058
I20
sVti
p8059
I65
sVpi
p8060
I7
sVak
p8061
I27
sVta
p8062
I130
sVir
p8063
I15
sVan
p8064
I89
sVdh
p8065
I2
sVdi
p8066
I3
sVya
p8067
I78
sVht
p8068
I1
sVda
p8069
I19
sVhk
p8070
I2
sVay
p8071
I31
sVhi
p8072
I50
sVdu
p8073
I1
sVyu
p8074
I3
sVod
p8075
I3
sVaq
p8076
I2
sVns
p8077
I2
sVma
p8078
I37
sVed
p8079
I54
sVut
p8080
I1
sVuv
p8081
I1
sVmi
p8082
I6
sVas
p8083
I4
sNI2013
sVur
p8084
I8
sVqa
p8085
I1
sVul
p8086
I13
sVun
p8087
I3
sVui
p8088
I1
sVue
p8089
I10
sVud
p8090
I3
sVly
p8091
I5
sVmy
p8092
I1
sVat
p8093
I30
sVem
p8094
I20
sVel
p8095
I1
sVen
p8096
I85
sVad
p8097
I45
sVek
p8098
I33
sVee
p8099
I8
sVip
p8100
I6
sVis
p8101
I4
sVaj
p8102
I45
sVam
p8103
I56
sVza
p8104
I2
sVeb
p8105
I1
sVah
p8106
I9
sVih
p8107
I1
sVik
p8108
I9
sVar
p8109
I48
sVey
p8110
I1
sVus
p8111
I4
sVim
p8112
I4
sVez
p8113
I11
sVia
p8114
I5
sVet
p8115
I16
sVev
p8116
I16
sVie
p8117
I3
sVep
p8118
I50
sVes
p8119
I3
sVer
p8120
I57
sVum
p8121
I8
sVib
p8122
I6
sVrp
p8123
I3
sVil
p8124
I18
sVna
p8125
I124
sVha
p8126
I123
sVaz
p8127
I25
sVne
p8128
I2
sVid
p8129
I19
sVnu
p8130
I1
sVra
p8131
I74
sVit
p8132
I13
sVro
p8133
I2
sVnt
p8134
I32
sVri
p8135
I23
sVba
p8136
I2
sVwa
p8137
I2
sVni
p8138
I58
sVsl
p8139
I2
sVbh
p8140
I34
sVbi
p8141
I2
sVbu
p8142
I3
sVnk
p8143
I11
sVif
p8144
I7
sVhy
p8145
I1
sVhu
p8146
I8
sVja
p8147
I1
sVoo
p8148
I5
sVon
p8149
I1
sVka
p8150
I127
sVol
p8151
I2
sVin
p8152
I50
sVfa
p8153
I4
sVki
p8154
I3
sVty
p8155
I2
sVob
p8156
I4
sVsi
p8157
I2
sVsh
p8158
I217
sVoz
p8159
I1
sVkt
p8160
I1
sVsa
p8161
I10
sVot
p8162
I2
sVor
p8163
I3
sVse
p8164
I1
stp8165
Rp8166
sg46
I205
sg47
F4673.5
sbs(g8
g2890
tp8167
g0
(g17
g2
Ntp8168
Rp8169
(dp8170
g21
F0.5
sg22
I6239
sg23
g24
((dp8171
I1
I442
sI2
I36
sI3
I96
sI4
I440
sI5
I1047
sI6
I1358
sI7
I1157
sI8
I534
sI9
I403
sI10
I238
sI11
I221
sI12
I110
sI13
I78
sI14
I32
sI15
I13
sI16
I10
sI17
I12
sI18
I7
sI19
I5
stp8172
Rp8173
sg46
I19
sg47
F6248.5
sbs(g11
g1582
tp8174
g0
(g17
g2
Ntp8175
Rp8176
(dp8177
g21
F0.5
sg22
I1461
sg23
g24
((dp8178
Vali
p8179
I7
sVpta
p8180
I4
sVita
p8181
I59
sVosh
p8182
I1
sVipa
p8183
I1
sVima
p8184
I5
sVhal
p8185
I1
sVhan
p8186
I8
sVjay
p8187
I1
sVjat
p8188
I1
sVjan
p8189
I4
sVhro
p8190
I1
sVhri
p8191
I2
sVlya
p8192
I3
sVhar
p8193
I1
sVski
p8194
I2
sVami
p8195
I3
sVmoy
p8196
I2
sVhis
p8197
I3
sVdam
p8198
I6
sVrna
p8199
I12
sVdas
p8200
I2
sVhik
p8201
I1
sVhya
p8202
I2
sVshu
p8203
I4
sVeet
p8204
I5
sVeep
p8205
I16
sNI838
sVeer
p8206
I2
sVsha
p8207
I12
sVeen
p8208
I4
sVban
p8209
I9
sVshi
p8210
I9
sVesh
p8211
I8
sVdip
p8212
I8
sVnur
p8213
I2
sVara
p8214
I2
sVsee
p8215
I1
sVari
p8216
I8
sVick
p8217
I3
sVeel
p8218
I2
sVabh
p8219
I1
sVabi
p8220
I3
sVsum
p8221
I1
sVbdi
p8222
I4
sVkul
p8223
I2
sVira
p8224
I6
sVumi
p8225
I9
sVree
p8226
I17
sVmed
p8227
I1
sVrul
p8228
I4
sVnti
p8229
I2
sVika
p8230
I14
sVnta
p8231
I9
sVley
p8232
I2
sVrup
p8233
I1
sVhka
p8234
I2
sVata
p8235
I16
sVnda
p8236
I7
sVvra
p8237
I1
sVath
p8238
I5
sVati
p8239
I4
sVndy
p8240
I1
sVaki
p8241
I1
sVeta
p8242
I4
sVdra
p8243
I3
sVisa
p8244
I10
sVeti
p8245
I2
sVndu
p8246
I12
sVoni
p8247
I2
sVpol
p8248
I2
sViki
p8249
I2
sVana
p8250
I3
sVdul
p8251
I1
sVgir
p8252
I3
sVchi
p8253
I1
sVaya
p8254
I1
sVjit
p8255
I53
sVbha
p8256
I2
sVyan
p8257
I6
sVhek
p8258
I8
sVnka
p8259
I15
sVoto
p8260
I2
sVbur
p8261
I1
sVgar
p8262
I3
sVoot
p8263
I1
sVhmi
p8264
I2
sVbub
p8265
I1
sVhma
p8266
I2
sViya
p8267
I3
sVanu
p8268
I6
sVhat
p8269
I2
sViyo
p8270
I5
sVila
p8271
I2
sVdev
p8272
I2
sVutt
p8273
I1
sVavi
p8274
I2
sVbhi
p8275
I1
sVaaz
p8276
I2
sVsan
p8277
I3
sVoti
p8278
I4
sVran
p8279
I5
sVram
p8280
I1
sVraj
p8281
I1
sVani
p8282
I5
sVkhi
p8283
I1
sVino
p8284
I2
sVtaa
p8285
I1
sVtal
p8286
I1
sVkha
p8287
I3
sVtan
p8288
I2
sVina
p8289
I5
sVena
p8290
I2
sVdha
p8291
I5
sVava
p8292
I1
sVtim
p8293
I2
sVsia
p8294
I2
sVish
p8295
I5
sVnaz
p8296
I2
sVdhu
p8297
I1
sVnya
p8298
I3
sVdan
p8299
I4
sVpan
p8300
I2
sVini
p8301
I6
sVmar
p8302
I4
sVnil
p8303
I2
sVmay
p8304
I1
sVtya
p8305
I2
sVkar
p8306
I10
sVmad
p8307
I2
sVmal
p8308
I1
sVman
p8309
I3
sVhna
p8310
I4
sVzya
p8311
I2
sVthi
p8312
I2
sVury
p8313
I1
sVtha
p8314
I11
sVepa
p8315
I1
stp8316
Rp8317
sg46
I510
sg47
F1716.0
sbs(g12
g59
tp8318
g0
(g17
g2
Ntp8319
Rp8320
(dp8321
g21
F0.5
sg22
I1496
sg23
g24
((dp8322
Vraji
p8323
I3
sVgold
p8324
I1
sVprin
p8325
I7
sVraja
p8326
I7
sVraje
p8327
I4
sVpriy
p8328
I16
sVsuni
p8329
I8
sVsunn
p8330
I5
sVprit
p8331
I2
sVrajw
p8332
I4
sVrajv
p8333
I5
sVgula
p8334
I1
sVarih
p8335
I2
sVbikr
p8336
I2
sVasgk
p8337
I1
sVrajn
p8338
I6
sVrash
p8339
I5
sVswat
p8340
I3
sVgulr
p8341
I2
sVtush
p8342
I2
sVrick
p8343
I4
sVrobi
p8344
I1
sVtirt
p8345
I1
sVkulj
p8346
I1
sVisha
p8347
I2
sVsona
p8348
I8
sVginn
p8349
I1
sVmuni
p8350
I2
sVrish
p8351
I4
sVsoni
p8352
I6
sVhema
p8353
I3
sVgeet
p8354
I3
sVbean
p8355
I2
sVsonu
p8356
I1
sVkshi
p8357
I1
sVhemp
p8358
I2
sVsilk
p8359
I1
sVverm
p8360
I1
sVaanc
p8361
I1
sVravj
p8362
I2
sVsaur
p8363
I6
sVsant
p8364
I1
sVmahi
p8365
I2
sVjasj
p8366
I2
sVjask
p8367
I2
sVjasb
p8368
I3
sVgaur
p8369
I9
sVsang
p8370
I2
sVsand
p8371
I14
sVrita
p8372
I1
sVsana
p8373
I2
sVudit
p8374
I1
sVjasw
p8375
I3
sVsanm
p8376
I2
sVsanj
p8377
I4
sVjass
p8378
I3
sVrach
p8379
I2
sVvini
p8380
I2
sVchet
p8381
I4
sVbaks
p8382
I1
sVanve
p8383
I1
sVbakh
p8384
I1
sVbark
p8385
I3
sVyach
p8386
I2
sVkrit
p8387
I1
sVarvi
p8388
I5
sVgunj
p8389
I2
sVrupi
p8390
I1
sVguni
p8391
I1
sVbirp
p8392
I2
sVnanc
p8393
I1
sVrupa
p8394
I2
sVradh
p8395
I2
sVseha
p8396
I2
sVjite
p8397
I4
sVsour
p8398
I3
sVgaga
p8399
I7
sVambi
p8400
I1
sVriti
p8401
I2
sVishn
p8402
I1
sVishi
p8403
I1
sVjiti
p8404
I2
sVkama
p8405
I18
sVrimp
p8406
I2
sVtany
p8407
I3
sVjati
p8408
I11
sVdhri
p8409
I2
sVsing
p8410
I2
sVmagg
p8411
I2
sVmanp
p8412
I16
sVsaba
p8413
I2
sVmanv
p8414
I7
sVbhup
p8415
I1
sVprav
p8416
I1
sVdhim
p8417
I1
sVmegh
p8418
I2
sVmana
p8419
I4
sVmont
p8420
I1
sVhone
p8421
I1
sVhite
p8422
I1
sVmane
p8423
I1
sVhkau
p8424
I1
sVmanj
p8425
I7
sVgiri
p8426
I1
sVrama
p8427
I10
sVhima
p8428
I4
sVmrig
p8429
I2
sVavta
p8430
I1
sVmand
p8431
I10
sVvaib
p8432
I1
sVshik
p8433
I3
sVpami
p8434
I1
sVnaku
p8435
I1
sViqba
p8436
I1
sVkulw
p8437
I2
sVravi
p8438
I11
sVvipa
p8439
I2
sVsexy
p8440
I1
sVdili
p8441
I1
sVprem
p8442
I1
sViqra
p8443
I1
sVdeep
p8444
I29
sVkirt
p8445
I3
sVpree
p8446
I14
sVsara
p8447
I6
sVsare
p8448
I2
sVtina
p8449
I2
sVgaza
p8450
I2
sVdama
p8451
I2
sVkhat
p8452
I3
sVrich
p8453
I2
sVneha
p8454
I14
sVrubi
p8455
I2
sVbabl
p8456
I2
sVkoma
p8457
I2
sVmuke
p8458
I1
sVmans
p8459
I3
sVvand
p8460
I3
sVjapt
p8461
I1
sVdhee
p8462
I2
sVdavi
p8463
I7
sVchar
p8464
I5
sVmeen
p8465
I6
sVamri
p8466
I9
sVjpsi
p8467
I1
sVridh
p8468
I2
sVamre
p8469
I1
sVsabi
p8470
I1
sVmalk
p8471
I1
sVmalh
p8472
I2
sVroop
p8473
I2
sVtanv
p8474
I2
sVtanu
p8475
I3
sValis
p8476
I2
sVsude
p8477
I2
sVanju
p8478
I2
sVchir
p8479
I1
sVpawa
p8480
I5
sVsudh
p8481
I1
sVchit
p8482
I1
sVasha
p8483
I1
sVdaks
p8484
I2
sVvire
p8485
I1
sVmoni
p8486
I6
sVvira
p8487
I2
sVhavi
p8488
I1
sVjyot
p8489
I7
sVaany
p8490
I2
sVsatp
p8491
I1
sVgurs
p8492
I3
sVgurp
p8493
I15
sVrami
p8494
I2
sVgurv
p8495
I7
sVgurw
p8496
I1
sVsatv
p8497
I2
sVcapt
p8498
I2
sVsamb
p8499
I1
sVnikh
p8500
I3
sVniki
p8501
I2
sVsupr
p8502
I5
sVsame
p8503
I4
sVdilp
p8504
I4
sVgurb
p8505
I3
sVgurc
p8506
I1
sVsatb
p8507
I1
sVnari
p8508
I2
sVsatg
p8509
I2
sVgurj
p8510
I6
sVsati
p8511
I2
sVnipu
p8512
I1
sVguri
p8513
I5
sVgurn
p8514
I3
sVgurl
p8515
I2
sVgurm
p8516
I2
sVshar
p8517
I6
sVadit
p8518
I4
sVbalj
p8519
I6
sVkush
p8520
I1
sVanki
p8521
I13
sVshwe
p8522
I3
sVdimp
p8523
I2
sVanku
p8524
I6
sVdivy
p8525
I6
sVmani
p8526
I13
sVbalw
p8527
I2
sVvibh
p8528
I1
sVmitc
p8529
I1
sVbinn
p8530
I2
sVsuji
p8531
I2
sVvikr
p8532
I5
sVriya
p8533
I1
sVdevi
p8534
I3
sVkaal
p8535
I1
sVarsh
p8536
I3
sVsumm
p8537
I2
sVsuja
p8538
I2
sVamit
p8539
I22
sVmano
p8540
I1
sVsama
p8541
I2
sVvaru
p8542
I12
sVsimr
p8543
I11
sVvais
p8544
I2
sVsima
p8545
I2
sVmanm
p8546
I9
sVatin
p8547
I1
sVsime
p8548
I1
sVpank
p8549
I4
sVlove
p8550
I2
sVsimi
p8551
I3
sVvari
p8552
I4
sVlakh
p8553
I4
sVrosh
p8554
I3
sVprat
p8555
I5
sVraya
p8556
I1
sVranb
p8557
I2
sVkhus
p8558
I2
sVlate
p8559
I5
sVhina
p8560
I1
sVprab
p8561
I8
sVnirm
p8562
I2
sVlaks
p8563
I2
sVpram
p8564
I2
sVanil
p8565
I1
sVmaya
p8566
I4
sVrakh
p8567
I2
sVdars
p8568
I2
sVrake
p8569
I5
sVnish
p8570
I8
sVmayu
p8571
I1
sVapur
p8572
I3
sVjasm
p8573
I5
sVshri
p8574
I2
sVsumi
p8575
I4
sVcvbn
p8576
I2
sVanit
p8577
I1
sVbani
p8578
I4
sVyadw
p8579
I2
sVarjo
p8580
I2
sVnama
p8581
I2
sVsaum
p8582
I1
sVnavj
p8583
I4
sNI51
sVkuld
p8584
I5
sVsaks
p8585
I6
sVsatn
p8586
I1
sVarju
p8587
I1
sVsidd
p8588
I8
sVurvi
p8589
I2
sVluck
p8590
I1
sVlipa
p8591
I2
sVharn
p8592
I2
sVharm
p8593
I4
sVharl
p8594
I4
sVhark
p8595
I3
sVnavd
p8596
I9
sVhari
p8597
I2
sVdoll
p8598
I1
sVnavi
p8599
I3
sVhard
p8600
I4
sVhara
p8601
I1
sVnavn
p8602
I6
sVnavp
p8603
I1
sVpall
p8604
I2
sVkanw
p8605
I2
sVkanu
p8606
I2
sVhars
p8607
I6
sVmohi
p8608
I7
sVharp
p8609
I19
sVheav
p8610
I2
sVpaya
p8611
I2
sVrohi
p8612
I3
sVvrid
p8613
I1
sVabhi
p8614
I4
sVumes
p8615
I3
sVruch
p8616
I3
sVniti
p8617
I6
sVpukh
p8618
I1
sVekla
p8619
I1
sVkaur
p8620
I3
sVnidh
p8621
I8
sVober
p8622
I2
sVjasv
p8623
I4
sVajay
p8624
I5
sVamar
p8625
I7
sVdalj
p8626
I6
sVtaji
p8627
I2
sVashm
p8628
I2
sVpune
p8629
I4
sVasho
p8630
I1
sVashw
p8631
I2
sVashi
p8632
I11
sVheen
p8633
I1
sVgari
p8634
I5
sVsahi
p8635
I9
sVjeev
p8636
I3
sVsarb
p8637
I5
sVpunu
p8638
I2
sVkuna
p8639
I6
sVjasp
p8640
I16
sVashu
p8641
I2
sVkdee
p8642
I1
sVrand
p8643
I1
sVdine
p8644
I4
sVmukt
p8645
I2
sVbhan
p8646
I2
sVsach
p8647
I4
sVrins
p8648
I2
sVranj
p8649
I8
sVjogi
p8650
I1
sVshru
p8651
I1
sVshee
p8652
I1
sVrink
p8653
I2
sVbhar
p8654
I4
sVmukh
p8655
I2
sVmiss
p8656
I2
sVharj
p8657
I4
sVkawa
p8658
I1
sVveer
p8659
I2
sVroni
p8660
I2
sVtama
p8661
I1
sVmamt
p8662
I2
sVjubb
p8663
I1
sVsmik
p8664
I1
sVnaya
p8665
I2
sVjohn
p8666
I2
sVshai
p8667
I3
sVanur
p8668
I1
sVpard
p8669
I3
sVparb
p8670
I1
sVpara
p8671
I10
sVparm
p8672
I9
sVpari
p8673
I1
sVparw
p8674
I1
sVesha
p8675
I3
sVparu
p8676
I1
sVjagr
p8677
I3
sVjagp
p8678
I3
sVreem
p8679
I1
sVreen
p8680
I2
sVvive
p8681
I1
sVgobi
p8682
I1
sVragh
p8683
I2
sVmadh
p8684
I1
sVjiwa
p8685
I2
sVsart
p8686
I2
sVarne
p8687
I1
sVarun
p8688
I4
sVmoha
p8689
I1
sVsush
p8690
I2
sVjagj
p8691
I1
sVanja
p8692
I1
sVaish
p8693
I1
sVvija
p8694
I1
sVkaru
p8695
I2
sVmina
p8696
I2
sVchan
p8697
I4
sVneer
p8698
I2
sVcham
p8699
I1
sVneel
p8700
I4
sVkara
p8701
I20
sVrahu
p8702
I10
sVseem
p8703
I3
sVshiv
p8704
I10
sVshiw
p8705
I2
sVkarl
p8706
I2
sVyoge
p8707
I2
sVsukh
p8708
I11
sVtarn
p8709
I2
sVtara
p8710
I1
sVyogi
p8711
I2
sVteji
p8712
I2
sVnick
p8713
I2
sVkrut
p8714
I1
sVleen
p8715
I2
sVkira
p8716
I6
sVtaru
p8717
I6
sVsure
p8718
I2
sVsurb
p8719
I2
sVsura
p8720
I2
sVjasl
p8721
I9
sVaman
p8722
I23
sVaror
p8723
I8
sVsuri
p8724
I2
sVansh
p8725
I2
sVgopi
p8726
I1
sVpooj
p8727
I8
sVvish
p8728
I14
sVshya
p8729
I1
sVpoon
p8730
I2
sVanch
p8731
I1
sVsali
p8732
I1
sVniha
p8733
I1
sVparv
p8734
I2
sVinde
p8735
I9
sVaakr
p8736
I2
sVapoo
p8737
I1
sVsoha
p8738
I1
sVritu
p8739
I4
stp8740
Rp8741
sg46
I2323
sg47
F2657.5
sbs(g8
g15
tp8742
g0
(g17
g2
Ntp8743
Rp8744
(dp8745
g21
F0.5
sg22
I6239
sg23
g24
((dp8746
g35
I174
sg56
I21
sg26
I1590
sg27
I4
sg28
I95
sg29
I114
sg55
I4
sg1576
I11
sg30
I746
sg31
I737
sg32
I86
sg33
I95
sg34
I83
sV,
p8747
I2
sNI1014
sg36
I545
sg1577
I3
sg37
I64
sg38
I56
sg39
I316
sg40
I178
sg41
I53
sg42
I27
sg43
I213
sg1579
I8
stp8748
Rp8749
sg46
I25
sg47
F6251.5
sbs(g8
g527
tp8750
g0
(g17
g2
Ntp8751
Rp8752
(dp8753
g21
F0.5
sg22
I6239
sg23
g24
((dp8754
Vroh
p8755
I20
sValo
p8756
I1
sVroj
p8757
I2
sVron
p8758
I2
sVali
p8759
I5
sVrob
p8760
I2
sVale
p8761
I5
sValb
p8762
I4
sVall
p8763
I1
sVrog
p8764
I1
sVedw
p8765
I2
sVros
p8766
I6
sValp
p8767
I2
sVvet
p8768
I1
sVver
p8769
I2
sVrek
p8770
I13
sVroo
p8771
I11
sVved
p8772
I3
sVvee
p8773
I22
sVven
p8774
I31
sVvel
p8775
I4
sVvem
p8776
I3
sVfar
p8777
I3
sVped
p8778
I3
sVfat
p8779
I5
sVgou
p8780
I3
sVfah
p8781
I1
sVfai
p8782
I3
sVaja
p8783
I3
sVala
p8784
I2
sVtri
p8785
I3
sVdim
p8786
I2
sVdin
p8787
I17
sVrea
p8788
I2
sVgug
p8789
I1
sVgud
p8790
I2
sVdid
p8791
I2
sVguj
p8792
I4
sVupe
p8793
I1
sVtre
p8794
I3
sVgun
p8795
I9
sVaje
p8796
I3
sVgur
p8797
I9
sVdiv
p8798
I48
sVdiw
p8799
I1
sVdip
p8800
I1
sVtej
p8801
I9
sVtel
p8802
I2
sVtee
p8803
I1
sVtez
p8804
I1
sVter
p8805
I3
sVtes
p8806
I1
sVsug
p8807
I7
sVabb
p8808
I1
sVsud
p8809
I20
sVabd
p8810
I7
sVsub
p8811
I17
sVneh
p8812
I6
sVabh
p8813
I13
sVabi
p8814
I11
sVsum
p8815
I20
sVnee
p8816
I15
sVsuk
p8817
I6
sVkur
p8818
I2
sVsuh
p8819
I5
sVsuv
p8820
I6
sVkum
p8821
I21
sVkul
p8822
I1
sVsus
p8823
I13
sVsur
p8824
I55
sVsup
p8825
I5
sVnet
p8826
I6
sVkud
p8827
I1
sVsuy
p8828
I1
sVmee
p8829
I13
sVmed
p8830
I4
sVmeg
p8831
I12
sVlee
p8832
I8
sVoza
p8833
I1
sVlek
p8834
I4
sVmeh
p8835
I3
sVlen
p8836
I1
sVaks
p8837
I7
sVgla
p8838
I2
sVbos
p8839
I1
sVaku
p8840
I2
sVaki
p8841
I1
sVbok
p8842
I2
sVbom
p8843
I1
sVbon
p8844
I2
sVdra
p8845
I1
sVjos
p8846
I10
sVbog
p8847
I5
sVvib
p8848
I2
sVvic
p8849
I4
sVvig
p8850
I13
sVvid
p8851
I17
sVvij
p8852
I61
sVvik
p8853
I7
sVvih
p8854
I1
sVvin
p8855
I73
sVvil
p8856
I2
sVjas
p8857
I3
sVvir
p8858
I3
sVvis
p8859
I41
sVvip
p8860
I2
sVviv
p8861
I4
sVbri
p8862
I5
sVapa
p8863
I3
sVbra
p8864
I1
sVcha
p8865
I47
sVfeb
p8866
I2
sVche
p8867
I14
sVchh
p8868
I2
sVchi
p8869
I12
sVfem
p8870
I3
sVmsr
p8871
I2
sVush
p8872
I8
sVchr
p8873
I8
sVayy
p8874
I2
sVays
p8875
I2
sVgop
p8876
I11
sVkem
p8877
I1
sVcar
p8878
I1
sVsre
p8879
I40
sVdev
p8880
I20
sVdei
p8881
I2
sVdel
p8882
I7
sVull
p8883
I2
sVibr
p8884
I1
sVdee
p8885
I48
sVtar
p8886
I4
sVkyl
p8887
I2
sVann
p8888
I11
sVspo
p8889
I4
sVtam
p8890
I8
sVtan
p8891
I12
sVoba
p8892
I2
sVsir
p8893
I4
sVend
p8894
I3
sVsiv
p8895
I25
sVsit
p8896
I3
sVhon
p8897
I3
sVeno
p8898
I1
sVsib
p8899
I10
sVsid
p8900
I14
sVsij
p8901
I3
sVoyc
p8902
I1
sVsin
p8903
I17
sVsim
p8904
I2
sVsil
p8905
I2
sVlal
p8906
I11
sVmas
p8907
I2
sVsne
p8908
I17
sVmat
p8909
I4
sVlak
p8910
I27
sVmay
p8911
I6
sVlag
p8912
I1
sVlac
p8913
I2
sVlax
p8914
I6
sVmad
p8915
I29
sVmag
p8916
I1
sVlat
p8917
I36
sVmah
p8918
I39
sVlav
p8919
I3
sVlaw
p8920
I4
sVmam
p8921
I4
sVmal
p8922
I13
sVman
p8923
I113
sVkra
p8924
I3
sVdhi
p8925
I15
sVpaw
p8926
I1
sVgha
p8927
I1
sVomh
p8928
I1
sVgho
p8929
I3
sVvmb
p8930
I2
sVfir
p8931
I3
sVjin
p8932
I24
sVcle
p8933
I2
sVjil
p8934
I3
sVjij
p8935
I12
sVbyn
p8936
I1
sVjit
p8937
I8
sVjis
p8938
I5
sVjip
p8939
I1
sVdad
p8940
I1
sVdil
p8941
I4
sVant
p8942
I4
sVdac
p8943
I1
sVdal
p8944
I3
sVdan
p8945
I8
sVshr
p8946
I68
sVnob
p8947
I1
sVdav
p8948
I7
sVcer
p8949
I2
sVdar
p8950
I10
sVdas
p8951
I4
sVnou
p8952
I5
sVson
p8953
I9
sVkka
p8954
I1
sVday
p8955
I1
sNI478
sViff
p8956
I1
sVlan
p8957
I1
sVhym
p8958
I1
sVvam
p8959
I5
sVmar
p8960
I15
sVgom
p8961
I2
sVgol
p8962
I4
sVgon
p8963
I2
sVnil
p8964
I2
sVgok
p8965
I5
sVres
p8966
I21
sVrev
p8967
I8
sVret
p8968
I1
sVgob
p8969
I1
sVrej
p8970
I13
sVaji
p8971
I9
sVreh
p8972
I3
sVren
p8973
I18
sVsmi
p8974
I3
sVrem
p8975
I9
sVble
p8976
I5
sVrec
p8977
I2
sVgow
p8978
I10
sVgov
p8979
I3
sVreg
p8980
I1
sVred
p8981
I8
sVree
p8982
I4
sVpul
p8983
I2
sVpun
p8984
I6
sVasw
p8985
I9
sVpuj
p8986
I3
sVasa
p8987
I2
sVgit
p8988
I2
sVecr
p8989
I1
sVasi
p8990
I2
sVash
p8991
I50
sVaso
p8992
I1
sVbhe
p8993
I2
sVpur
p8994
I7
sVpus
p8995
I7
sVatc
p8996
I1
sVata
p8997
I2
sViss
p8998
I2
sVato
p8999
I2
sVatm
p9000
I1
sVath
p9001
I11
sVyuv
p9002
I9
sVish
p9003
I4
sVlay
p9004
I1
sVart
p9005
I4
sVjer
p9006
I6
sVjes
p9007
I2
sVkok
p9008
I1
sVkom
p9009
I3
sVkol
p9010
I4
sVjet
p9011
I1
sVkon
p9012
I1
sVtos
p9013
I1
sVjey
p9014
I2
sVyog
p9015
I7
sVjeg
p9016
I3
sVjee
p9017
I6
sVtob
p9018
I4
sVkor
p9019
I1
sVjen
p9020
I8
sVkot
p9021
I6
sVjem
p9022
I1
sVgya
p9023
I1
sVvar
p9024
I10
sVuda
p9025
I8
sVgin
p9026
I2
sVudh
p9027
I2
sVste
p9028
I6
sVpup
p9029
I2
sVsta
p9030
I2
sVaal
p9031
I1
sVraz
p9032
I2
sVbea
p9033
I2
sVaak
p9034
I1
sVbee
p9035
I1
sVarc
p9036
I15
sVaas
p9037
I3
sVaar
p9038
I6
sVber
p9039
I5
sVbev
p9040
I1
sVbet
p9041
I2
sVbeu
p9042
I1
sVbhi
p9043
I2
sVane
p9044
I13
sVsai
p9045
I22
sVang
p9046
I5
sVpra
p9047
I182
sVrac
p9048
I5
sVsam
p9049
I19
sVraa
p9050
I3
sVran
p9051
I21
sVsab
p9052
I8
sVpro
p9053
I2
sVano
p9054
I12
sVpri
p9055
I50
sVani
p9056
I53
sVrah
p9057
I24
sVsad
p9058
I6
sVrav
p9059
I48
sVanu
p9060
I51
sVrat
p9061
I12
sVanw
p9062
I2
sVras
p9063
I27
sVrap
p9064
I1
sVans
p9065
I4
sVsas
p9066
I2
sVsar
p9067
I61
sVsap
p9068
I2
sVpry
p9069
I1
sVsav
p9070
I11
sVsau
p9071
I2
sVsat
p9072
I45
sVlig
p9073
I3
sVmil
p9074
I3
sVlib
p9075
I5
sVmin
p9076
I3
sVlil
p9077
I2
sVlin
p9078
I10
sVmid
p9079
I4
sVlij
p9080
I11
sVlik
p9081
I2
sVlis
p9082
I4
sVmis
p9083
I5
sVmit
p9084
I5
sVliz
p9085
I3
sVkaa
p9086
I1
sVkai
p9087
I2
sVkan
p9088
I20
sVkam
p9089
I12
sVkal
p9090
I30
sVkas
p9091
I12
sVkar
p9092
I64
sVnem
p9093
I2
sVkav
p9094
I32
sVkat
p9095
I9
sVpya
p9096
I1
sVkay
p9097
I2
sVdon
p9098
I3
sVdom
p9099
I1
sVmri
p9100
I2
sVsun
p9101
I63
sVsul
p9102
I1
sVkus
p9103
I1
sVsuj
p9104
I23
sVjay
p9105
I33
sVjav
p9106
I2
sVjat
p9107
I1
sVabr
p9108
I2
sVjan
p9109
I19
sVhri
p9110
I2
sVjah
p9111
I5
sVjai
p9112
I8
sVjaf
p9113
I2
sVjag
p9114
I12
sVjab
p9115
I1
sVjac
p9116
I3
sVhir
p9117
I1
sVaad
p9118
I1
sVgee
p9119
I13
sVgeo
p9120
I4
sVhim
p9121
I2
sVbav
p9122
I4
sVbat
p9123
I3
sVbar
p9124
I3
sVbas
p9125
I8
sVshw
p9126
I20
sVshy
p9127
I10
sVsha
p9128
I108
sVbad
p9129
I2
sVbab
p9130
I11
sVshe
p9131
I18
sVshg
p9132
I2
sVban
p9133
I7
sVshi
p9134
I65
sVbal
p9135
I28
sVbak
p9136
I3
sVsho
p9137
I9
sVarp
p9138
I2
sVars
p9139
I2
sVses
p9140
I1
sVaru
p9141
I59
sVarv
p9142
I2
sVary
p9143
I5
sVebi
p9144
I1
sVara
p9145
I14
sVsee
p9146
I9
sVsed
p9147
I2
sVseb
p9148
I2
sVari
p9149
I2
sVarj
p9150
I13
sVsel
p9151
I17
sVsek
p9152
I3
sVarm
p9153
I1
sVaro
p9154
I3
sVmut
p9155
I16
sVmus
p9156
I2
sVmur
p9157
I19
sVirs
p9158
I3
sVvas
p9159
I8
sVluc
p9160
I2
sVmua
p9161
I1
sVmub
p9162
I3
sVira
p9163
I2
sVmun
p9164
I3
sVmuh
p9165
I16
sVmuk
p9166
I1
sVmuj
p9167
I1
sVjor
p9168
I1
sVmen
p9169
I2
sVkee
p9170
I7
sVked
p9171
I2
sVomm
p9172
I1
sVjob
p9173
I2
sVtul
p9174
I3
sVkez
p9175
I1
sVjoh
p9176
I10
sVjoi
p9177
I1
sVvri
p9178
I2
sVkes
p9179
I3
sVila
p9180
I2
sVfiz
p9181
I1
sVunn
p9182
I7
sVjoe
p9183
I3
sVraf
p9184
I1
sVrag
p9185
I39
sVbyr
p9186
I1
sVpot
p9187
I2
sVrad
p9188
I6
sVpon
p9189
I2
sVpoo
p9190
I15
sVsah
p9191
I7
sVnat
p9192
I4
sVana
p9193
I27
sVfra
p9194
I3
sVbho
p9195
I1
sVfre
p9196
I1
sVyaz
p9197
I2
sVswa
p9198
I29
sVyat
p9199
I3
sVanc
p9200
I4
sVswe
p9201
I14
sVxav
p9202
I2
sVyar
p9203
I1
sVyam
p9204
I7
sVsac
p9205
I5
sVyan
p9206
I1
sVyad
p9207
I2
sVyag
p9208
I2
sVsaa
p9209
I2
sVram
p9210
I82
sVgay
p9211
I17
sVbme
p9212
I2
sVraj
p9213
I127
sVgau
p9214
I3
sVgar
p9215
I1
sVrak
p9216
I20
sVgan
p9217
I13
sVanj
p9218
I22
sVank
p9219
I2
sVgab
p9220
I1
sViye
p9221
I1
sVpru
p9222
I3
sVsak
p9223
I7
sVmla
p9224
I2
sVanv
p9225
I1
sVais
p9226
I11
sVsaj
p9227
I12
sVami
p9228
I9
sVriz
p9229
I3
sVavu
p9230
I1
sVrit
p9231
I1
sVris
p9232
I1
sVeve
p9233
I1
sVrin
p9234
I4
sVrij
p9235
I6
sVavi
p9236
I6
sVbij
p9237
I8
sVric
p9238
I4
sVpar
p9239
I17
sVpas
p9240
I1
sVpat
p9241
I2
sVpau
p9242
I2
sVpav
p9243
I19
sVuna
p9244
I2
sVbhu
p9245
I6
sVdhe
p9246
I4
sVyal
p9247
I4
sVdha
p9248
I21
sVakh
p9249
I10
sVpad
p9250
I3
sVdhu
p9251
I2
sVpal
p9252
I7
sVpan
p9253
I7
sVnik
p9254
I24
sVnih
p9255
I1
sVsye
p9256
I1
sVnim
p9257
I6
sVkis
p9258
I8
sVkir
p9259
I26
sVpha
p9260
I6
sVnid
p9261
I4
sVniz
p9262
I1
sVnir
p9263
I5
sVnis
p9264
I26
sVsfk
p9265
I2
sVniv
p9266
I3
sVnit
p9267
I24
sVnag
p9268
I35
sVvys
p9269
I3
sVlog
p9270
I3
sVthy
p9271
I1
sVthu
p9272
I2
sVeps
p9273
I2
sVtho
p9274
I5
sVtit
p9275
I1
sVgsd
p9276
I2
sVthi
p9277
I6
sVsan
p9278
I144
sVthe
p9279
I8
sVmic
p9280
I3
sVtha
p9281
I12
sVyen
p9282
I2
sVyed
p9283
I1
sVhaj
p9284
I2
sVeli
p9285
I2
sVadr
p9286
I2
sVham
p9287
I2
sVhan
p9288
I2
sVmog
p9289
I2
sVela
p9290
I4
sVhaf
p9291
I3
sVsal
p9292
I8
sVtus
p9293
I2
sVada
p9294
I3
sVhap
p9295
I1
sVels
p9296
I1
sVhar
p9297
I49
sVhas
p9298
I1
sVadh
p9299
I6
sVadi
p9300
I5
sVbin
p9301
I12
sVbil
p9302
I1
sVamj
p9303
I2
sVamm
p9304
I1
sVbik
p9305
I2
sVama
p9306
I10
sVamb
p9307
I7
sVbib
p9308
I4
sVmov
p9309
I3
sVmou
p9310
I1
sVmoh
p9311
I44
sVmoo
p9312
I2
sVmon
p9313
I7
sVams
p9314
I1
sVamr
p9315
I9
sVamu
p9316
I4
sVame
p9317
I1
sVjyo
p9318
I13
sVgjb
p9319
I1
sVvit
p9320
I1
sVoli
p9321
I1
sVbha
p9322
I47
sVsen
p9323
I16
sVest
p9324
I3
sVper
p9325
I1
sVume
p9326
I4
sVuma
p9327
I7
sVumm
p9328
I1
sVpee
p9329
I2
sVesh
p9330
I1
sVsuc
p9331
I1
sVrub
p9332
I2
sVsag
p9333
I3
sVrud
p9334
I2
sVtya
p9335
I1
sVrup
p9336
I4
sVdum
p9337
I1
sVsra
p9338
I9
sVdun
p9339
I1
sVcht
p9340
I2
sVsaf
p9341
I3
sVsri
p9342
I76
sVkru
p9343
I2
sVkri
p9344
I26
sVsru
p9345
I11
sVthr
p9346
I1
sVzum
p9347
I2
sVsod
p9348
I2
sVsog
p9349
I1
sVsof
p9350
I1
sVxyz
p9351
I1
sVsoj
p9352
I2
sVsom
p9353
I12
sVsol
p9354
I3
sVsoo
p9355
I7
sVahm
p9356
I1
sVsop
p9357
I3
sVsou
p9358
I18
sVyas
p9359
I8
sVsow
p9360
I17
sVcho
p9361
I2
sVvaj
p9362
I1
sVvah
p9363
I2
sVvai
p9364
I10
sVvan
p9365
I14
sVgir
p9366
I18
sVval
p9367
I4
sVgip
p9368
I2
sVlok
p9369
I6
sVloh
p9370
I1
sVvag
p9371
I2
sVvad
p9372
I5
sVgif
p9373
I4
sVgid
p9374
I2
sVhea
p9375
I1
sVlou
p9376
I3
sVhel
p9377
I1
sVhem
p9378
I11
sVgil
p9379
I2
sVgij
p9380
I2
sVjud
p9381
I1
sVjul
p9382
I2
sVjus
p9383
I2
sVsdf
p9384
I1
sVbun
p9385
I2
sVdur
p9386
I7
sVsya
p9387
I4
sVutt
p9388
I1
sVnnn
p9389
I2
sVpin
p9390
I1
sVmyt
p9391
I2
sVpiy
p9392
I1
sVind
p9393
I6
sVkha
p9394
I5
sVinf
p9395
I2
sVpit
p9396
I2
sVinb
p9397
I1
sVnac
p9398
I1
sVpre
p9399
I34
sVnaj
p9400
I1
sVnak
p9401
I6
sVnai
p9402
I2
sVnan
p9403
I26
sVtir
p9404
I5
sVnam
p9405
I6
sVnar
p9406
I21
sVnas
p9407
I1
sVtin
p9408
I14
sVgre
p9409
I3
sVnav
p9410
I42
sVtij
p9411
I2
sVgra
p9412
I2
sVnaz
p9413
I8
sVnay
p9414
I4
sVkun
p9415
I5
sVuba
p9416
I1
sVcpb
p9417
I1
sVnic
p9418
I2
sVgaj
p9419
I4
stp9420
Rp9421
sg46
I1064
sg47
F6771.0
sbs(g8
g48
tp9422
g0
(g17
g2
Ntp9423
Rp9424
(dp9425
g21
F0.5
sg22
I6239
sg23
g24
((dp9426
g26
I631
sg54
I112
sg27
I209
sg28
I23
sg29
I272
sg55
I188
sg1576
I25
sg30
I26
sg31
I86
sg32
I367
sg33
I237
sg34
I468
sg35
I170
sg56
I10
sg36
I320
sg37
I428
sg38
I1409
sg39
I624
sg40
I45
sg41
I131
sg42
I401
sg43
I52
sg2887
I3
sg1579
I2
stp9427
Rp9428
sg46
I26
sg47
F6252.0
sbssS'_label_probdist'
p9429
g0
(g17
g2
Ntp9430
Rp9431
(dp9432
g21
F0.5
sg22
I16864
sg23
g24
((dp9433
g8
I6239
sg9
I3097
sg10
I4571
sg11
I1461
sg12
I1496
stp9434
Rp9435
sg46
I5
sg47
F16866.5
sbsb.