ccopy_reg
_reconstructor
p0
(cnltk.classify.naivebayes
NaiveBayesClassifier
p1
c__builtin__
object
p2
Ntp3
Rp4
(dp5
S'_labels'
p6
(lp7
S'South Indian'
p8
aS'West Indian'
p9
aS'North Indian'
p10
aS'East Indian'
p11
aVPunjabi
p12
asS'_feature_probdist'
p13
(dp14
(g12
S'name_last'
p15
tp16
g0
(cnltk.probability
ELEProbDist
p17
g2
Ntp18
Rp19
(dp20
S'_gamma'
p21
F0.5
sS'_N'
p22
I1494
sS'_freqdist'
p23
cnltk.probability
FreqDist
p24
((dp25
Vo
p26
I1
sVa
p27
I399
sVb
p28
I2
sVe
p29
I7
sVd
p30
I7
sVg
p31
I1
sVi
p32
I114
sVh
p33
I267
sVk
p34
I9
sVj
p35
I9
sVm
p36
I4
sVl
p37
I90
sNI320
sVn
p38
I56
sVp
p39
I18
sVs
p40
I1
sVr
p41
I105
sVu
p42
I18
sVt
p43
I42
sVv
p44
I3
sVy
p45
I21
stp46
Rp47
sS'_bins'
p48
I27
sS'_divisor'
p49
F1507.5
sbs(g12
S'name_first'
p50
tp51
g0
(g17
g2
Ntp52
Rp53
(dp54
g21
F0.5
sg22
I1494
sg23
g24
((dp55
g27
I107
sVc
p56
I45
sg28
I76
sg29
I1
sg30
I43
sg31
I85
sg32
I4
sg33
I11
sg34
I295
sg35
I52
sg36
I94
sg37
I18
sg26
I5
sg38
I30
sg39
I48
sg40
I438
sg41
I55
sg42
I1
sg43
I33
sVw
p57
I15
sg44
I37
sg45
I1
stp58
Rp59
sg48
I26
sg49
F1507.0
sbs(g11
S'name_first_four'
p60
tp61
g0
(g17
g2
Ntp62
Rp63
(dp64
g21
F0.5
sg22
I1444
sg23
g24
((dp65
Vraji
p66
I2
sVbair
p67
I1
sVbais
p68
I1
sVghos
p69
I59
sVneog
p70
I2
sVgold
p71
I2
sVsirc
p72
I1
sVpriy
p73
I3
sVdipa
p74
I1
sVbaid
p75
I3
sVgang
p76
I15
sVpand
p77
I2
sVrana
p78
I3
sVpaul
p79
I26
sVraju
p80
I2
sVmait
p81
I12
sVpatt
p82
I1
sVarpi
p83
I1
sVanir
p84
I1
sVsult
p85
I7
sVseng
p86
I14
sVdhal
p87
I2
sVlate
p88
I4
sVdhar
p89
I7
sVnath
p90
I5
sVlata
p91
I1
sVkuma
p92
I1
sVlaks
p93
I2
sVpram
p94
I7
sVahme
p95
I2
sVabba
p96
I3
sVsafi
p97
I1
sVtuhi
p98
I2
sVhema
p99
I2
sVnade
p100
I3
sVdutt
p101
I35
sVbane
p102
I30
sVbang
p103
I2
sVhald
p104
I10
sVaafr
p105
I1
sVsapu
p106
I1
sVsova
p107
I1
sVbani
p108
I3
sVshah
p109
I4
sVsuma
p110
I2
sVsant
p111
I4
sVshai
p112
I4
sVbhow
p113
I10
sVmaha
p114
I8
sNI290
sVsany
p115
I4
sVsang
p116
I1
sVanja
p117
I2
sVsana
p118
I3
sVanan
p119
I2
sVsanj
p120
I1
sVmumt
p121
I3
sVbaru
p122
I2
sVnaiy
p123
I2
sVmall
p124
I6
sVdiya
p125
I2
sVsigh
p126
I2
sVshel
p127
I2
sVhuss
p128
I1
sVasau
p129
I2
sVbasu
p130
I7
sVsaya
p131
I2
sVseal
p132
I3
sVbari
p133
I2
sVratn
p134
I2
sVbose
p135
I8
sVbarm
p136
I6
sVbora
p137
I1
sVrath
p138
I2
sVakht
p139
I1
sVpoll
p140
I1
sVhazr
p141
I4
sVkris
p142
I2
sVkapo
p143
I2
sVnand
p144
I2
sVpiju
p145
I2
sVesri
p146
I2
sVnabd
p147
I1
sVsapt
p148
I1
sVbubl
p149
I2
sVsaad
p150
I1
sVshuv
p151
I1
sVdebn
p152
I6
sVkama
p153
I5
sVpatr
p154
I3
sVatre
p155
I1
sVhasi
p156
I1
sVshup
p157
I2
sVsark
p158
I33
sVburm
p159
I2
sVchat
p160
I43
sVmitt
p161
I2
sVdasg
p162
I2
sVmitr
p163
I14
sVhasa
p164
I2
sVhajr
p165
I2
sVsinh
p166
I5
sVbasa
p167
I6
sVsing
p168
I3
sVacha
p169
I7
sVmond
p170
I21
sVsaha
p171
I22
sVbisw
p172
I30
sVmarc
p173
I1
sVkmdo
p174
I1
sVsahi
p175
I1
sVnupu
p176
I1
sVmoni
p177
I2
sVsude
p178
I2
sVmana
p179
I1
sVmand
p180
I25
sVchou
p181
I8
sVkund
p182
I7
sVchow
p183
I28
sVmani
p184
I1
sVlask
p185
I5
sVnilu
p186
I1
sVhoss
p187
I2
sVbhad
p188
I2
sVgosw
p189
I3
sVhabi
p190
I1
sVmish
p191
I4
sVbhan
p192
I2
sVtedd
p193
I2
sVshri
p194
I3
sVgara
p195
I2
sVbhau
p196
I1
sVbhat
p197
I29
sVghat
p198
I2
sVsubb
p199
I2
sVmort
p200
I1
sVpola
p201
I2
sVpath
p202
I3
sVpaya
p203
I2
sVsubh
p204
I1
sVsubi
p205
I1
sVgupt
p206
I7
sVdewa
p207
I1
sVsari
p208
I2
sVkhan
p209
I2
sVkesh
p210
I1
sVsarm
p211
I2
sVpree
p212
I1
sVmazu
p213
I4
sVsard
p214
I4
sVjanm
p215
I2
sVmaru
p216
I1
sVdhua
p217
I2
sVjanh
p218
I2
sVhota
p219
I1
sVkhar
p220
I2
sVjana
p221
I4
sVkhat
p222
I9
sVgazi
p223
I1
sVhode
p224
I2
sVmoit
p225
I1
sVafor
p226
I2
sVparb
p227
I1
sVnaye
p228
I2
sVhurv
p229
I2
sVgora
p230
I2
sVpiya
p231
I4
sVbera
p232
I8
sVrahm
p233
I1
sValaw
p234
I1
sVthak
p235
I3
sVpaku
p236
I2
sVakas
p237
I1
sVguha
p238
I7
sVnaha
p239
I2
sVashi
p240
I1
sVsrab
p241
I2
sVmoye
p242
I1
sVlaye
p243
I1
sVsoum
p244
I4
sVsabu
p245
I2
sVlaha
p246
I4
sVkham
p247
I2
sVhaya
p248
I2
sVprap
p249
I2
sVmali
p250
I2
sVlahi
p251
I2
sVmoll
p252
I3
sVshik
p253
I1
sVraha
p254
I4
sVbhur
p255
I2
sVguch
p256
I2
sVgout
p257
I1
sVchak
p258
I64
sVmehe
p259
I1
sVchan
p260
I11
sVdeep
p261
I2
sVsikd
p262
I2
sVaudd
p263
I2
sVsika
p264
I2
sVrahu
p265
I2
sVadhi
p266
I10
sVkari
p267
I3
sVnazi
p268
I3
sVkarm
p269
I15
sVshar
p270
I3
sVshaw
p271
I2
sVsaho
p272
I1
sVsama
p273
I4
sVshay
p274
I2
sVmiah
p275
I1
sVkaya
p276
I3
sVsohi
p277
I1
sVrose
p278
I1
sVbajp
p279
I2
sVisla
p280
I4
sVasmi
p281
I1
sVbegu
p282
I5
sVnara
p283
I2
sVsamu
p284
I1
sVashr
p285
I2
sVball
p286
I1
sVadit
p287
I4
sVsura
p288
I2
sVsadh
p289
I1
sVdatt
p290
I1
sVpaha
p291
I1
sVpapa
p292
I1
sVbala
p293
I2
sVnaya
p294
I2
sVrudr
p295
I1
sVrata
p296
I1
sVmaju
p297
I13
sVansa
p298
I5
sVsusm
p299
I2
sVadil
p300
I1
sVazmi
p301
I1
sVtalu
p302
I2
sVejaj
p303
I2
sVmukh
p304
I35
sVsala
p305
I1
sVpodd
p306
I3
sVseth
p307
I1
sVbhar
p308
I4
sVpoda
p309
I2
sVsett
p310
I1
sVsekh
p311
I1
sVadak
p312
I1
sVmann
p313
I5
sVjain
p314
I1
sVsasm
p315
I1
sVbabu
p316
I2
sValok
p317
I1
sVdhan
p318
I4
sVkash
p319
I2
stp320
Rp321
sg48
I2515
sg49
F2701.5
sbs(g9
S'name_first_three'
p322
tp323
g0
(g17
g2
Ntp324
Rp325
(dp326
g21
F0.5
sg22
I3075
sg23
g24
((dp327
Vroh
p328
I1
sVrok
p329
I1
sVali
p330
I2
sVedk
p331
I2
sVala
p332
I1
sVroy
p333
I2
sVptl
p334
I1
sVhed
p335
I2
sVgad
p336
I6
sVved
p337
I2
sVaut
p338
I2
sVvek
p339
I1
sVfar
p340
I2
sVfat
p341
I1
sVble
p342
I1
sVfal
p343
I1
sVaja
p344
I3
sVjha
p345
I5
sVdim
p346
I4
sVdin
p347
I3
sVgug
p348
I2
sVgud
p349
I1
sVtra
p350
I2
sVgun
p351
I1
sVupa
p352
I10
sVgur
p353
I5
sVgup
p354
I2
sVdix
p355
I3
sVdiv
p356
I5
sVdip
p357
I1
sVdis
p358
I5
sVtel
p359
I1
sVtem
p360
I2
sVode
p361
I1
sVabb
p362
I1
sVsud
p363
I1
sVabd
p364
I2
sVsub
p365
I1
sVneh
p366
I6
sVsun
p367
I3
sVnee
p368
I3
sVkus
p369
I1
sVkur
p370
I6
sVsuv
p371
I1
sVkum
p372
I25
sVkul
p373
I22
sVkuk
p374
I2
sVsur
p375
I15
sVsup
p376
I3
sVnew
p377
I1
sVner
p378
I2
sVmed
p379
I2
sVmeg
p380
I4
sVmec
p381
I2
sVoza
p382
I5
sVmem
p383
I1
sVmen
p384
I1
sVmeh
p385
I53
sVmes
p386
I11
sVmer
p387
I4
sVbop
p388
I1
sVbor
p389
I5
sVakk
p390
I2
sVrdd
p391
I2
sVbok
p392
I2
sVako
p393
I1
sVbom
p394
I1
sVbon
p395
I4
sVaka
p396
I1
sVbod
p397
I2
sVvic
p398
I1
sVvij
p399
I7
sVvik
p400
I1
sVvin
p401
I5
sVvir
p402
I5
sVvis
p403
I6
sVvip
p404
I1
sVcha
p405
I60
sVchi
p406
I6
sVaya
p407
I3
sVcho
p408
I8
sVchr
p409
I3
sVust
p410
I1
sVchu
p411
I5
sVgav
p412
I1
sVjag
p413
I12
sVdes
p414
I37
sVdev
p415
I12
sVdew
p416
I1
sVdeh
p417
I1
sVcan
p418
I1
sVdeo
p419
I1
sVdee
p420
I2
sVtat
p421
I1
sVtaw
p422
I2
sVtap
p423
I1
sVakh
p424
I4
sVtay
p425
I2
sVtaa
p426
I3
sVtal
p427
I3
sVtam
p428
I3
sVtan
p429
I5
sVtai
p430
I4
sVsir
p431
I1
sVhod
p432
I2
sVhon
p433
I1
sVric
p434
I3
sVkri
p435
I2
sVbhu
p436
I9
sVnya
p437
I1
sVsin
p438
I8
sVsil
p439
I1
sVlal
p440
I3
sVlam
p441
I1
sVlan
p442
I3
sVmar
p443
I10
sVmat
p444
I2
sVlak
p445
I2
sVmay
p446
I5
sVmac
p447
I2
sVlax
p448
I2
sVmad
p449
I3
sVmag
p450
I8
sVlat
p451
I5
sVmah
p452
I13
sVmak
p453
I5
sVlaw
p454
I2
sVmam
p455
I3
sVmal
p456
I8
sVman
p457
I36
sVghu
p458
I8
sVpav
p459
I2
sVgha
p460
I9
sVgho
p461
I9
sVzen
p462
I1
sVvai
p463
I6
sVjig
p464
I8
sVank
p465
I3
sVjin
p466
I3
sVtri
p467
I15
sVdaf
p468
I1
sVnoo
p469
I1
sVdab
p470
I5
sVdal
p471
I9
sVdam
p472
I2
sVdan
p473
I6
sVshr
p474
I13
sVdat
p475
I2
sVdav
p476
I16
sVdaw
p477
I1
sVdap
p478
I1
sVdar
p479
I7
sVshu
p480
I10
sVpak
p481
I2
sVdik
p482
I2
sNI90
sVmas
p483
I2
sVdia
p484
I1
sVsne
p485
I6
sVgom
p486
I2
sVgon
p487
I1
sVgoh
p488
I7
sVgok
p489
I3
sVsha
p490
I125
sVgoe
p491
I2
sVgod
p492
I4
sVdsf
p493
I1
sVgot
p494
I1
sVgow
p495
I1
sVgop
p496
I2
sVgos
p497
I9
sVgor
p498
I6
sVhet
p499
I5
sVpun
p500
I5
sVpuj
p501
I1
sVwan
p502
I6
sVpud
p503
I2
sVwal
p504
I3
sVwak
p505
I2
sVasi
p506
I1
sVash
p507
I7
sVpur
p508
I3
sVlod
p509
I2
sVata
p510
I2
sVtru
p511
I2
sVyus
p512
I1
sVyuv
p513
I2
sVatt
p514
I2
sVzal
p515
I2
sVzam
p516
I2
sVzad
p517
I1
sVvag
p518
I7
sVzav
p519
I2
sVvaz
p520
I1
sVkok
p521
I2
sVkom
p522
I5
sVkol
p523
I15
sVjet
p524
I2
sVkon
p525
I1
sVtor
p526
I2
sVtow
p527
I1
sVkoy
p528
I3
sVphu
p529
I4
sVkop
p530
I1
sVkor
p531
I3
sVkot
p532
I17
sVhul
p533
I2
sVhun
p534
I2
sVhel
p535
I2
sVuda
p536
I3
sVhus
p537
I1
sVste
p538
I2
sVben
p539
I1
sVbel
p540
I2
sVraz
p541
I2
sVbee
p542
I1
sVaar
p543
I4
sVbhi
p544
I6
sVrag
p545
I1
sVsai
p546
I8
sVsah
p547
I1
sVpra
p548
I38
sVrac
p549
I2
sVsam
p550
I6
sVsal
p551
I20
sVsac
p552
I3
sVrao
p553
I4
sVann
p554
I4
sVram
p555
I12
sVraj
p556
I19
sVrak
p557
I3
sVanj
p558
I2
sVsad
p559
I3
sVrav
p560
I19
sVraw
p561
I2
sVsay
p562
I1
sVrau
p563
I15
sVras
p564
I3
sVsas
p565
I3
sVsar
p566
I8
sVsap
p567
I3
sVsaw
p568
I16
sVsav
p569
I5
sVsat
p570
I10
sVmih
p571
I2
sVlig
p572
I2
sVlia
p573
I2
sVmin
p574
I3
sVlim
p575
I6
sVlik
p576
I1
sVlip
p577
I2
sVmis
p578
I16
sVmir
p579
I2
sVmit
p580
I3
sVkac
p581
I4
sVkad
p582
I19
sVkak
p583
I5
sVkaj
p584
I3
sVkan
p585
I13
sVkam
p586
I17
sVkal
p587
I11
sVkas
p588
I3
sVkar
p589
I9
sVabc
p590
I4
sVbut
p591
I2
sVkau
p592
I2
sVkat
p593
I3
sVsuc
p594
I2
sVawa
p595
I1
sVdon
p596
I6
sVdol
p597
I3
sVdoc
p598
I2
sVdos
p599
I20
sVach
p600
I4
sVuga
p601
I3
sVjay
p602
I9
sVjav
p603
I1
sVjat
p604
I2
sVjar
p605
I1
sVjas
p606
I3
sVjan
p607
I10
sVjal
p608
I1
sVsut
p609
I4
sVjak
p610
I1
sVjai
p611
I4
sVsus
p612
I1
sVjad
p613
I50
sVksh
p614
I1
sVhir
p615
I4
sVhit
p616
I1
sVshe
p617
I26
sVged
p618
I2
sVhim
p619
I2
sVhin
p620
I1
sVbav
p621
I1
sVbaw
p622
I3
sVaes
p623
I1
sVbar
p624
I9
sVbas
p625
I2
sVshw
p626
I2
sVbax
p627
I2
sVbag
p628
I1
sVbad
p629
I1
sVbac
p630
I1
sVban
p631
I10
sVshi
p632
I38
sVbal
p633
I3
sVbam
p634
I2
sVbai
p635
I4
sVsev
p636
I2
sVset
p637
I1
sVaru
p638
I1
sVarv
p639
I2
sVken
p640
I4
sVsee
p641
I4
sVarc
p642
I2
sVarn
p643
I1
sVmus
p644
I2
sVmud
p645
I1
sVmuc
p646
I1
sVmul
p647
I2
sVmun
p648
I4
sVmuk
p649
I1
sVomb
p650
I1
sVjos
p651
I26
sVvru
p652
I2
sVtur
p653
I1
sVked
p654
I2
sVoms
p655
I2
sVjob
p656
I2
sVtum
p657
I2
sVjog
p658
I2
sVkev
p659
I2
sVket
p660
I1
sVkes
p661
I1
sVuna
p662
I2
sVund
p663
I1
sVcon
p664
I3
sVand
p665
I2
sVpot
p666
I4
sVpor
p667
I1
sVrad
p668
I5
sVpoo
p669
I9
sVsan
p670
I21
sVbho
p671
I10
sVswa
p672
I5
sVdud
p673
I2
sVran
p674
I14
sVlas
p675
I1
sVsab
p676
I6
sVdup
p677
I2
sVyad
p678
I4
sVgay
p679
I2
sVgaw
p680
I13
sVpri
p681
I6
sVgau
p682
I2
sVgar
p683
I1
sVani
p684
I3
sVgan
p685
I17
sVrah
p686
I8
sVgai
p687
I16
sVgag
p688
I1
sVrai
p689
I2
sVsak
p690
I10
sVanu
p691
I4
sVrat
p692
I24
sVaks
p693
I5
sVful
p694
I1
sVrit
p695
I3
sVvoh
p696
I3
sVris
p697
I2
sVvor
p698
I6
sVrid
p699
I3
sVava
p700
I3
sVdho
p701
I9
sVpar
p702
I61
sVpis
p703
I2
sVpat
p704
I229
sVpau
p705
I1
sVdhi
p706
I3
sVpaw
p707
I20
sVpay
p708
I3
sVdhe
p709
I3
sVdha
p710
I20
sVkhe
p711
I7
sVpab
p712
I2
sVpac
p713
I1
sVpad
p714
I7
sVpag
p715
I4
sVpai
p716
I4
sVdhu
p717
I6
sVray
p718
I2
sVpal
p719
I4
sVdhr
p720
I5
sVpan
p721
I38
sVnik
p722
I13
sVnil
p723
I4
sVnim
p724
I5
sVkis
p725
I3
sVkir
p726
I6
sVpha
p727
I4
sVnid
p728
I4
sVkin
p729
I3
sVnir
p730
I7
sVnis
p731
I3
sVnip
p732
I2
sVnit
p733
I4
sVthu
p734
I2
sVtho
p735
I7
sVvya
p736
I13
sVtha
p737
I18
sVyes
p738
I3
sVyer
p739
I2
sVyew
p740
I1
sVhal
p741
I1
sVhan
p742
I2
sVada
p743
I3
sVhar
p744
I15
sVhas
p745
I2
sVadh
p746
I2
sVadi
p747
I3
sVami
p748
I2
sVama
p749
I5
sVmor
p750
I19
sVamb
p751
I7
sVpos
p752
I1
sVmok
p753
I3
sVmoh
p754
I13
sVmoo
p755
I2
sVmon
p756
I2
sVmom
p757
I1
sVams
p758
I2
sVamr
p759
I4
sVmog
p760
I2
sVmod
p761
I12
sVmha
p762
I10
sVjyo
p763
I3
sVbha
p764
I59
sVvsk
p765
I2
sVuma
p766
I1
sVped
p767
I1
sVruk
p768
I1
sVsag
p769
I2
sVrup
p770
I3
sVdum
p771
I1
sVjam
p772
I4
sVsri
p773
I1
sVkru
p774
I2
sVkap
p775
I9
sVsof
p776
I2
sVsoi
p777
I1
sVahi
p778
I4
sVsom
p779
I1
sVsol
p780
I14
sVson
p781
I33
sVsor
p782
I3
sVvaj
p783
I2
sVvak
p784
I5
sVgit
p785
I1
sVvan
p786
I6
sVgir
p787
I3
sVwai
p788
I2
sVwah
p789
I2
sVwag
p790
I8
sVlok
p791
I9
sVloh
p792
I1
sVwad
p793
I3
sVlon
p794
I2
sVwab
p795
I1
sVvad
p796
I3
sVlor
p797
I2
sVpap
p798
I1
sVway
p799
I2
sVvar
p800
I4
sVvas
p801
I6
sVhen
p802
I1
sVwas
p803
I2
sVwar
p804
I7
sVjug
p805
I1
sVbur
p806
I4
sVjuh
p807
I2
sVjun
p808
I1
sVrjy
p809
I2
sVjum
p810
I1
sVjuv
p811
I1
sVjut
p812
I1
sVute
p813
I1
sVmru
p814
I2
sVpim
p815
I1
sVkhu
p816
I2
sVkhi
p817
I2
sVkho
p818
I4
sVkha
p819
I33
sVing
p820
I1
sVpit
p821
I3
sVina
p822
I1
sVnac
p823
I2
sVnag
p824
I7
sVyog
p825
I2
sVnak
p826
I4
sVnai
p827
I9
sVnan
p828
I5
sVnal
p829
I3
sVnar
p830
I7
sVtin
p831
I2
sVnav
p832
I4
sVnaw
p833
I1
sVnat
p834
I4
sVota
p835
I1
sVnaz
p836
I1
sVnay
p837
I5
sVnra
p838
I2
sVkun
p839
I1
sVaga
p840
I4
sVagr
p841
I2
sVgaj
p842
I7
stp843
Rp844
sg48
I1153
sg49
F3651.5
sbs(g10
S'name_first_two'
p845
tp846
g0
(g17
g2
Ntp847
Rp848
(dp849
g21
F0.5
sg22
I4565
sg23
g24
((dp850
Vgu
p851
I154
sVgr
p852
I5
sVge
p853
I1
sVga
p854
I60
sVgo
p855
I41
sVgi
p856
I3
sVgh
p857
I3
sVle
p858
I2
sVty
p859
I12
sVlo
p860
I14
sVtr
p861
I11
sVto
p862
I12
sVlu
p863
I5
sVth
p864
I23
sVti
p865
I42
sVte
p866
I4
sVta
p867
I43
sVdo
p868
I5
sVdh
p869
I24
sVdi
p870
I18
sVya
p871
I68
sVde
p872
I14
sVye
p873
I2
sVda
p874
I12
sVdw
p875
I7
sVdu
p876
I20
sVdr
p877
I2
sVis
p878
I7
sVyu
p879
I8
sVqu
p880
I10
sNI48
sVqa
p881
I2
sVzm
p882
I1
sVzi
p883
I4
sVze
p884
I5
sVza
p885
I19
sVmk
p886
I3
sVzu
p887
I5
sVeq
p888
I1
sVba
p889
I43
sVru
p890
I12
sVrr
p891
I1
sVrd
p892
I4
sVre
p893
I28
sVra
p894
I160
sVro
p895
I12
sVri
p896
I17
sVbe
p897
I13
sVjy
p898
I6
sVwa
p899
I17
sVju
p900
I7
sVbo
p901
I2
sVbh
p902
I78
sVbi
p903
I11
sVwi
p904
I2
sVbu
p905
I9
sVjo
p906
I9
sVjh
p907
I10
sVji
p908
I12
sVbr
p909
I4
sVje
p910
I6
sVja
p911
I105
sVom
p912
I2
sVoj
p913
I1
sVla
p914
I19
sVvi
p915
I26
sVch
p916
I112
sVel
p917
I1
sVca
p918
I1
sVxx
p919
I1
sVve
p920
I57
sVpr
p921
I56
sVpu
p922
I10
sVai
p923
I5
sVpa
p924
I164
sVpe
p925
I5
sVpk
p926
I2
sVph
p927
I2
sVpi
p928
I2
sVpo
p929
I7
sVaj
p930
I6
sVhs
p931
I2
sVka
p932
I116
sVhu
p933
I27
sVhi
p934
I2
sVho
p935
I2
sVha
p936
I46
sVhg
p937
I1
sVhe
p938
I5
sVme
p939
I38
sVmd
p940
I2
sVma
p941
I93
sVmo
p942
I41
sVmi
p943
I58
sVup
p944
I10
sVus
p945
I2
sVmu
p946
I24
sVun
p947
I3
sVui
p948
I1
sVud
p949
I2
sVub
p950
I2
sVaa
p951
I14
sVva
p952
I25
sVab
p953
I17
sVad
p954
I6
sVag
p955
I88
sVaf
p956
I11
sViq
p957
I6
sVah
p958
I64
sVak
p959
I13
sVir
p960
I12
sVam
p961
I9
sVal
p962
I53
sVan
p963
I78
sVap
p964
I2
sVas
p965
I44
sVar
p966
I39
sVim
p967
I12
sVil
p968
I4
sVaw
p969
I6
sVav
p970
I1
sVay
p971
I10
sVib
p972
I2
sVid
p973
I1
sVif
p974
I2
sVni
p975
I30
sVaz
p976
I6
sVyo
p977
I3
sVno
p978
I13
sVna
p979
I67
sVne
p980
I19
sVvo
p981
I4
sVso
p982
I42
sVnr
p983
I1
sVns
p984
I1
sVnu
p985
I1
sVfa
p986
I60
sVfk
p987
I1
sVsg
p988
I2
sVum
p989
I1
sVsy
p990
I10
sVin
p991
I4
sVke
p992
I8
sVsr
p993
I51
sVki
p994
I6
sVkh
p995
I306
sVko
p996
I8
sVsv
p997
I1
sVsu
p998
I58
sVst
p999
I1
sVsk
p1000
I3
sVkr
p1001
I4
sVsi
p1002
I271
sVsh
p1003
I411
sVkw
p1004
I4
sVsn
p1005
I1
sVku
p1006
I200
sVsc
p1007
I2
sVsa
p1008
I171
sVat
p1009
I7
sVsw
p1010
I6
sVse
p1011
I17
sVsd
p1012
I1
stp1013
Rp1014
sg48
I285
sg49
F4707.5
sbs(g12
g322
tp1015
g0
(g17
g2
Ntp1016
Rp1017
(dp1018
g21
F0.5
sg22
I1494
sg23
g24
((dp1019
Vali
p1020
I1
sVnis
p1021
I3
sVver
p1022
I14
sVjat
p1023
I2
sVjas
p1024
I11
sVjan
p1025
I1
sVjam
p1026
I1
sVjai
p1027
I8
sVsus
p1028
I2
sVjac
p1029
I2
sVgee
p1030
I4
sVhim
p1031
I1
sVdil
p1032
I1
sVbaw
p1033
I1
sVdin
p1034
I4
sVhyd
p1035
I1
sVbas
p1036
I2
sVjhi
p1037
I1
sVguj
p1038
I1
sVtre
p1039
I2
sVgun
p1040
I3
sVgul
p1041
I3
sVbag
p1042
I4
sVbad
p1043
I1
sVgup
p1044
I10
sVbab
p1045
I6
sVban
p1046
I8
sVshi
p1047
I8
sVgor
p1048
I3
sVbaj
p1049
I3
sVbak
p1050
I1
sVbah
p1051
I3
sVsho
p1052
I2
sVset
p1053
I6
sVary
p1054
I1
sVsee
p1055
I2
sVarj
p1056
I1
sVsek
p1057
I4
sVarn
p1058
I1
sVtew
p1059
I1
sVseh
p1060
I8
sVsud
p1061
I2
sVlut
p1062
I4
sVneh
p1063
I2
sVsun
p1064
I4
sVsuk
p1065
I3
sVabo
p1066
I1
sVkum
p1067
I27
sVkuk
p1068
I1
sVsur
p1069
I2
sVsup
p1070
I1
sVmuk
p1071
I1
sVmee
p1072
I4
sVjos
p1073
I6
sVlee
p1074
I2
sVmen
p1075
I2
sVtut
p1076
I4
sVmeh
p1077
I15
sVtul
p1078
I3
sVjoh
p1079
I2
sVhka
p1080
I1
sVjol
p1081
I2
sVaks
p1082
I1
sVaki
p1083
I1
sVakm
p1084
I1
sVvic
p1085
I1
sVvik
p1086
I2
sVvin
p1087
I3
sVvir
p1088
I3
sVpoo
p1089
I3
sVvip
p1090
I1
sVbra
p1091
I2
sVana
p1092
I4
sVcha
p1093
I17
sVche
p1094
I2
sVchh
p1095
I4
sVdua
p1096
I3
sVdub
p1097
I1
sVsal
p1098
I7
sVdug
p1099
I1
sVsac
p1100
I5
sVchu
p1101
I2
sVdut
p1102
I3
sVpri
p1103
I5
sVgau
p1104
I4
sVgar
p1105
I10
sVkhu
p1106
I16
sVgan
p1107
I3
sVgam
p1108
I2
sVrah
p1109
I5
sVgai
p1110
I1
sVjag
p1111
I3
sVgag
p1112
I1
sVrai
p1113
I2
sVgab
p1114
I3
sVdev
p1115
I2
sVcvb
p1116
I2
sVdee
p1117
I5
sVsri
p1118
I2
sVriy
p1119
I1
sVrit
p1120
I4
sVkho
p1121
I7
sVvoh
p1122
I2
sVris
p1123
I1
sVrim
p1124
I1
sVkha
p1125
I11
sVtal
p1126
I4
sVtan
p1127
I7
sVric
p1128
I2
sVsis
p1129
I2
sVpar
p1130
I3
sVpat
p1131
I1
sVdhi
p1132
I8
sVpaw
p1133
I2
sVaff
p1134
I1
sVdha
p1135
I8
sVjps
p1136
I2
sVsia
p1137
I2
sVsig
p1138
I1
sVsid
p1139
I4
sVsik
p1140
I1
sVpal
p1141
I6
sVsin
p1142
I242
sVsim
p1143
I6
sVlal
p1144
I2
sVnik
p1145
I1
sVmas
p1146
I2
sVadl
p1147
I2
sVmat
p1148
I3
sVlak
p1149
I3
sVmay
p1150
I4
sVkir
p1151
I6
sVnid
p1152
I2
sVmad
p1153
I4
sVlat
p1154
I6
sVmah
p1155
I4
sVmam
p1156
I2
sVmal
p1157
I11
sVnit
p1158
I2
sVman
p1159
I14
sVsan
p1160
I19
sVthe
p1161
I1
sVgho
p1162
I1
sVtha
p1163
I9
sVmig
p1164
I1
sVjin
p1165
I2
sVraj
p1166
I13
sVpab
p1167
I2
sVjit
p1168
I2
sVhar
p1169
I6
sVami
p1170
I7
sVjha
p1171
I3
sVama
p1172
I3
sVdan
p1173
I2
sVaro
p1174
I47
sVbat
p1175
I6
sVmou
p1176
I2
sVpah
p1177
I2
sVmoh
p1178
I4
sVmoo
p1179
I3
sVmon
p1180
I1
sVamr
p1181
I2
sVbir
p1182
I2
sVbro
p1183
I2
sVvis
p1184
I6
sNI14
sVpan
p1185
I3
sVjyo
p1186
I1
sVnih
p1187
I2
sVbha
p1188
I27
sVmar
p1189
I5
sVgur
p1190
I10
sVgog
p1191
I1
sVrek
p1192
I3
sVreh
p1193
I2
sVcra
p1194
I1
sVgoy
p1195
I10
sVgos
p1196
I1
sVesh
p1197
I1
sVpun
p1198
I4
sVlub
p1199
I1
sVsag
p1200
I2
sVpug
p1201
I1
sVasg
p1202
I2
sVvan
p1203
I2
sVash
p1204
I1
sVpur
p1205
I4
sVpre
p1206
I5
sVobe
p1207
I5
sVatw
p1208
I3
sVatt
p1209
I1
sVish
p1210
I1
sVupp
p1211
I1
sVsoi
p1212
I1
sVsoh
p1213
I2
sVsok
p1214
I3
sVsoo
p1215
I5
sVson
p1216
I14
sVars
p1217
I2
sVahu
p1218
I7
sVcho
p1219
I17
sVkoh
p1220
I4
sVwal
p1221
I5
sVkom
p1222
I1
sVsha
p1223
I44
sVkoc
p1224
I2
sVwad
p1225
I8
sVvar
p1226
I1
sVhem
p1227
I2
sVgil
p1228
I10
sVkou
p1229
I5
sVkot
p1230
I2
sVjun
p1231
I1
sVvas
p1232
I2
sVbud
p1233
I2
sVbeh
p1234
I1
sVwas
p1235
I2
sVaan
p1236
I2
sVbed
p1237
I3
sVsak
p1238
I2
sVsai
p1239
I12
sVsah
p1240
I3
sVpra
p1241
I4
sVrac
p1242
I1
sVsam
p1243
I3
sVanc
p1244
I2
sVran
p1245
I8
sVsab
p1246
I2
sVpro
p1247
I1
sVram
p1248
I5
sVbhe
p1249
I1
sVrak
p1250
I2
sVanj
p1251
I1
sVank
p1252
I2
sVpru
p1253
I1
sVpiy
p1254
I1
sVrat
p1255
I3
sVras
p1256
I2
sVans
p1257
I2
sVind
p1258
I3
sVsar
p1259
I2
sVsap
p1260
I2
sVsaw
p1261
I2
sVkhe
p1262
I2
sVnag
p1263
I6
sVmin
p1264
I2
sVyog
p1265
I1
sVnan
p1266
I3
sVtir
p1267
I1
sVnar
p1268
I3
sVtin
p1269
I1
sVnav
p1270
I3
sVgro
p1271
I4
sVmis
p1272
I6
sVnay
p1273
I3
sVmit
p1274
I4
sVkad
p1275
I1
sVkan
p1276
I3
sVkam
p1277
I7
sVkal
p1278
I9
sVkas
p1279
I2
sVkar
p1280
I4
sVkap
p1281
I14
sVkau
p1282
I162
sVkat
p1283
I4
sVkay
p1284
I2
sVagg
p1285
I6
sVdog
p1286
I3
stp1287
Rp1288
sg48
I1153
sg49
F2070.5
sbs(g9
S'name_last_four'
p1289
tp1290
g0
(g17
g2
Ntp1291
Rp1292
(dp1293
g21
F0.5
sg22
I3075
sg23
g24
((dp1294
Vdane
p1295
I1
sVskar
p1296
I9
sVhela
p1297
I1
sVderi
p1298
I1
sVgule
p1299
I1
sValla
p1300
I2
sVavay
p1301
I1
sVhada
p1302
I4
sVnali
p1303
I2
sVaria
p1304
I1
sVhade
p1305
I2
sVdhan
p1306
I1
sVnkar
p1307
I18
sVdhar
p1308
I4
sVnath
p1309
I1
sVswar
p1310
I2
sVhede
p1311
I5
sVavad
p1312
I1
sVakha
p1313
I1
sVrlal
p1314
I2
sVpkar
p1315
I1
sVkude
p1316
I2
sVgude
p1317
I2
sVdari
p1318
I2
sVhali
p1319
I4
sVegra
p1320
I2
sVdare
p1321
I1
sVksha
p1322
I1
sVname
p1323
I3
sVathi
p1324
I2
sNI2534
sVekar
p1325
I28
sVddha
p1326
I1
sVgrao
p1327
I2
sVitra
p1328
I1
sVtray
p1329
I2
sVsani
p1330
I1
sVnkhe
p1331
I4
sVpade
p1332
I4
sVhari
p1333
I8
sVdiya
p1334
I12
sVhare
p1335
I10
sVibha
p1336
I2
sVhara
p1337
I3
sVkant
p1338
I4
sVctor
p1339
I3
sVklas
p1340
I1
sVasin
p1341
I1
sVvada
p1342
I3
sVingh
p1343
I1
sVkule
p1344
I2
sVvadi
p1345
I1
sVakhe
p1346
I1
sVrkar
p1347
I5
sVisha
p1348
I2
sVambe
p1349
I3
sViraj
p1350
I1
sVikar
p1351
I8
sVatel
p1352
I3
sVmali
p1353
I2
sVhosh
p1354
I2
sVtian
p1355
I3
sVutki
p1356
I1
sVwami
p1357
I1
sVsinh
p1358
I2
sVvkar
p1359
I2
sVhand
p1360
I2
sVtkar
p1361
I6
sVliya
p1362
I5
sVtlal
p1363
I1
sVanth
p1364
I1
sVtire
p1365
I2
sVrari
p1366
I2
sVutra
p1367
I2
sVeesh
p1368
I2
sVhita
p1369
I2
sVrdar
p1370
I1
sVwadi
p1371
I2
sVkhda
p1372
I2
sVmani
p1373
I1
sVudhe
p1374
I1
sVhkar
p1375
I1
sVwala
p1376
I16
sVgare
p1377
I1
sVbhai
p1378
I31
sVdini
p1379
I2
sVkade
p1380
I2
sVhree
p1381
I1
sVpati
p1382
I9
sViyar
p1383
I2
sVniya
p1384
I1
sVtwar
p1385
I1
sVwkar
p1386
I1
sVwade
p1387
I3
sVmukh
p1388
I9
sVmare
p1389
I5
sVandi
p1390
I1
sVande
p1391
I13
sVrmol
p1392
I2
sVarte
p1393
I1
sVjani
p1394
I1
sVhiya
p1395
I2
sVkhat
p1396
I1
sVarma
p1397
I1
sVthar
p1398
I1
sVhode
p1399
I1
sVpara
p1400
I1
sVsali
p1401
I1
sVmire
p1402
I2
sVunje
p1403
I1
sVewar
p1404
I1
sVvana
p1405
I1
sVkhia
p1406
I1
sVhsri
p1407
I1
sVvani
p1408
I2
sVware
p1409
I2
sVakar
p1410
I2
sVsiya
p1411
I1
sVwara
p1412
I1
sVtani
p1413
I2
sVndar
p1414
I1
sVagaj
p1415
I2
sVrkhi
p1416
I2
sVagar
p1417
I1
sVyati
p1418
I2
sVakia
p1419
I1
sVagat
p1420
I1
sVarni
p1421
I21
sVadgi
p1422
I2
sVrkhe
p1423
I1
sVhiye
p1424
I3
sVwana
p1425
I1
sVwane
p1426
I12
sVerao
p1427
I2
sVshia
p1428
I2
sVgale
p1429
I3
sVadha
p1430
I2
sVumar
p1431
I12
sVkare
p1432
I1
sVvire
p1433
I2
sVshiv
p1434
I1
sVnshi
p1435
I7
sVuhan
p1436
I1
sVguru
p1437
I2
sVdkar
p1438
I8
sVpure
p1439
I4
sVnvar
p1440
I2
sVshan
p1441
I1
sVanka
p1442
I4
sVwati
p1443
I1
sVawar
p1444
I2
sVaman
p1445
I1
sVhnum
p1446
I2
sVhane
p1447
I4
sVhyam
p1448
I2
sVadia
p1449
I2
sVthod
p1450
I2
sVtesh
p1451
I2
sVhyay
p1452
I6
sVlwar
p1453
I1
sVhant
p1454
I2
sVatne
p1455
I2
sVyaya
p1456
I2
sVstry
p1457
I1
sVdage
p1458
I1
sVriya
p1459
I4
sVjlal
p1460
I1
sVpuje
p1461
I2
sVtale
p1462
I1
sVlkar
p1463
I15
sVrani
p1464
I1
sVakke
p1465
I3
sVtali
p1466
I2
sVsama
p1467
I5
stp1468
Rp1469
sg48
I692
sg49
F3421.0
sbs(g11
g50
tp1470
g0
(g17
g2
Ntp1471
Rp1472
(dp1473
g21
F0.5
sg22
I1444
sg23
g24
((dp1474
g27
I67
sg56
I154
sg28
I179
sg29
I4
sg30
I200
sg31
I105
sg32
I5
sg33
I32
sg34
I63
sg35
I11
sg36
I168
sg37
I19
sg38
I30
sg39
I84
sg40
I213
sg41
I101
sg43
I9
stp1475
Rp1476
sg48
I26
sg49
F1457.0
sbs(g11
g845
tp1477
g0
(g17
g2
Ntp1478
Rp1479
(dp1480
g21
F0.5
sg22
I1444
sg23
g24
((dp1481
Vgu
p1482
I16
sVch
p1483
I154
sVga
p1484
I18
sVgo
p1485
I8
sVgh
p1486
I61
sVpr
p1487
I13
sVdu
p1488
I35
sVla
p1489
I19
sVtu
p1490
I2
sVpa
p1491
I55
sVth
p1492
I3
sVte
p1493
I2
sVak
p1494
I2
sVta
p1495
I2
sVdh
p1496
I15
sVdi
p1497
I3
sVde
p1498
I45
sVhu
p1499
I3
sVaf
p1500
I2
sVho
p1501
I5
sVha
p1502
I22
sVhe
p1503
I2
sVme
p1504
I1
sVpi
p1505
I6
sVma
p1506
I79
sVmo
p1507
I29
sVmi
p1508
I21
sNI8
sVpo
p1509
I8
sVmu
p1510
I38
sVat
p1511
I1
sVaa
p1512
I1
sVac
p1513
I7
sVab
p1514
I3
sVad
p1515
I16
sVej
p1516
I2
sVah
p1517
I2
sVis
p1518
I5
sVal
p1519
I11
sVan
p1520
I10
sVas
p1521
I6
sVar
p1522
I3
sVau
p1523
I2
sVsu
p1524
I21
sVaz
p1525
I1
sVes
p1526
I2
sVru
p1527
I1
sVna
p1528
I26
sVne
p1529
I2
sVra
p1530
I27
sVro
p1531
I73
sVnu
p1532
I1
sVbe
p1533
I13
sVba
p1534
I73
sVni
p1535
I1
sVbo
p1536
I9
sVbh
p1537
I50
sVbi
p1538
I30
sVbu
p1539
I4
sVda
p1540
I102
sVja
p1541
I9
sVka
p1542
I36
sVke
p1543
I1
sVss
p1544
I1
sVsr
p1545
I4
sVkh
p1546
I15
sVkm
p1547
I1
sVsk
p1548
I1
sVkr
p1549
I2
sVsi
p1550
I19
sVsh
p1551
I24
sVso
p1552
I6
sVku
p1553
I8
sVsa
p1554
I94
sVse
p1555
I39
sVsd
p1556
I2
stp1557
Rp1558
sg48
I285
sg49
F1586.5
sbs(g9
S'name_last_three'
p1559
tp1560
g0
(g17
g2
Ntp1561
Rp1562
(dp1563
g21
F0.5
sg22
I3075
sg23
g24
((dp1564
Vrte
p1565
I1
sVali
p1566
I13
sVale
p1567
I25
sVala
p1568
I19
sVosh
p1569
I2
sVkha
p1570
I2
sVlla
p1571
I2
sVose
p1572
I2
sVhai
p1573
I31
sVhal
p1574
I20
sVhan
p1575
I19
sVjat
p1576
I2
sVela
p1577
I6
sVngh
p1578
I1
sVele
p1579
I1
sVjan
p1580
I5
sVade
p1581
I26
sVrge
p1582
I1
sVada
p1583
I7
sVhar
p1584
I20
sVhat
p1585
I3
sVhav
p1586
I1
sVadi
p1587
I3
sVami
p1588
I8
sVrni
p1589
I21
sVite
p1590
I1
sVhit
p1591
I2
sVhiv
p1592
I1
sVdal
p1593
I2
sVame
p1594
I3
sVhia
p1595
I3
sVdar
p1596
I5
sVmol
p1597
I2
sVkke
p1598
I3
sVtki
p1599
I1
sVtri
p1600
I3
sVhya
p1601
I2
sVbar
p1602
I1
sVtra
p1603
I3
sVeet
p1604
I4
sVtre
p1605
I3
sVdia
p1606
I6
sNI2055
sVtry
p1607
I1
sVsha
p1608
I3
sVvde
p1609
I2
sVshi
p1610
I9
sVbal
p1611
I3
sVesh
p1612
I17
sVtel
p1613
I3
sVole
p1614
I1
sVnje
p1615
I2
sVoli
p1616
I1
sVeep
p1617
I2
sVara
p1618
I10
sVrma
p1619
I1
sVare
p1620
I46
sVede
p1621
I6
sVari
p1622
I20
sVode
p1623
I6
sVabi
p1624
I1
sVnee
p1625
I2
sVcha
p1626
I2
sVire
p1627
I6
sVree
p1628
I1
sVnge
p1629
I4
sVnth
p1630
I1
sVika
p1631
I7
sVwal
p1632
I1
sVase
p1633
I2
sVyay
p1634
I6
sVash
p1635
I4
sVker
p1636
I2
sVora
p1637
I1
sVndi
p1638
I1
sVate
p1639
I4
sVata
p1640
I2
sVeke
p1641
I4
sVsri
p1642
I1
sVnde
p1643
I18
sVath
p1644
I2
sVati
p1645
I13
sVish
p1646
I2
sVune
p1647
I2
sVuni
p1648
I1
sVdre
p1649
I2
sVake
p1650
I1
sVhvi
p1651
I3
sVmbh
p1652
I2
sVvij
p1653
I1
sVmbe
p1654
I3
sVpor
p1655
I1
sVedi
p1656
I13
sVude
p1657
I9
sVwan
p1658
I1
sVian
p1659
I3
sVdul
p1660
I2
sVdum
p1661
I1
sVval
p1662
I1
sVtor
p1663
I3
sVwad
p1664
I16
sVaya
p1665
I2
sVvad
p1666
I1
sVyar
p1667
I4
sVyam
p1668
I2
sVvay
p1669
I1
sVukh
p1670
I9
sVvar
p1671
I2
sVman
p1672
I3
sVwar
p1673
I9
sVehi
p1674
I1
sVnka
p1675
I4
sVnke
p1676
I4
sVnki
p1677
I14
sVgat
p1678
I1
sVote
p1679
I1
sVgaj
p1680
I2
sVoor
p1681
I1
sVnce
p1682
I2
sViye
p1683
I3
sViya
p1684
I35
sVute
p1685
I3
sVavi
p1686
I2
sVery
p1687
I1
sVtne
p1688
I2
sVnum
p1689
I2
sVtna
p1690
I1
sVhda
p1691
I2
sVita
p1692
I3
sViar
p1693
I1
sVeri
p1694
I2
sVule
p1695
I5
sVand
p1696
I2
sVane
p1697
I24
sVana
p1698
I13
sVbha
p1699
I2
sVrao
p1700
I7
sVram
p1701
I10
sVraj
p1702
I1
sVani
p1703
I31
sVnna
p1704
I2
sVank
p1705
I1
sVant
p1706
I7
sVkhi
p1707
I2
sVinh
p1708
I2
sVini
p1709
I2
sVsar
p1710
I5
sVtal
p1711
I2
sVine
p1712
I2
sVrid
p1713
I2
sVkhe
p1714
I6
sVray
p1715
I2
sVhod
p1716
I2
sVlia
p1717
I1
sVnak
p1718
I1
sVdhe
p1719
I1
sVdha
p1720
I3
sVrya
p1721
I2
sVama
p1722
I5
sVgra
p1723
I2
sVary
p1724
I1
sVria
p1725
I2
sVsin
p1726
I1
sVlal
p1727
I6
sVlam
p1728
I1
sVmar
p1729
I12
sVodi
p1730
I1
sVdgi
p1731
I2
sVgar
p1732
I1
sVkar
p1733
I127
sVkat
p1734
I2
sVkia
p1735
I2
sVtan
p1736
I2
sVlas
p1737
I1
sVure
p1738
I7
sVkal
p1739
I1
sVage
p1740
I2
sVuru
p1741
I2
sVthi
p1742
I4
sVuje
p1743
I2
sVthe
p1744
I3
stp1745
Rp1746
sg48
I549
sg49
F3349.5
sbs(g10
g1559
tp1747
g0
(g17
g2
Ntp1748
Rp1749
(dp1750
g21
F0.5
sg22
I4565
sg23
g24
((dp1751
Vlly
p1752
I1
sVali
p1753
I2
sVedi
p1754
I18
sVrti
p1755
I1
sVall
p1756
I1
sVpta
p1757
I1
sVala
p1758
I1
sVyay
p1759
I10
sVdha
p1760
I2
sVlla
p1761
I4
sVnyu
p1762
I2
sVima
p1763
I6
sVjid
p1764
I2
sVfiq
p1765
I1
sVhal
p1766
I8
sVham
p1767
I3
sVhan
p1768
I42
sVjay
p1769
I1
sVela
p1770
I1
sVhad
p1771
I4
sVjan
p1772
I2
sVjit
p1773
I2
sVade
p1774
I1
sVhri
p1775
I2
sVada
p1776
I1
sVmil
p1777
I1
sVhar
p1778
I12
sVhas
p1779
I1
sVhra
p1780
I1
sVief
p1781
I1
sVami
p1782
I5
sVhir
p1783
I1
sVhit
p1784
I2
sVnoi
p1785
I1
sVfar
p1786
I2
sVdak
p1787
I1
sVhik
p1788
I7
sVdar
p1789
I4
sVira
p1790
I3
sVbar
p1791
I1
sVita
p1792
I1
sVhil
p1793
I1
sVhim
p1794
I2
sVtri
p1795
I3
sVdin
p1796
I12
sVsht
p1797
I3
sVshu
p1798
I4
sVtra
p1799
I8
sVeet
p1800
I2
sVeep
p1801
I1
sNI3455
sVeer
p1802
I4
sVeem
p1803
I4
sVsha
p1804
I13
sViff
p1805
I3
sVeen
p1806
I41
sVeek
p1807
I2
sVini
p1808
I3
sVshi
p1809
I27
sVbal
p1810
I1
sVshk
p1811
I2
sVaem
p1812
I2
sVary
p1813
I31
sVhti
p1814
I2
sVdia
p1815
I1
sVija
p1816
I4
sVrma
p1817
I14
sVgum
p1818
I1
sVari
p1819
I14
sVtva
p1820
I4
sVeza
p1821
I1
sVhla
p1822
I1
sVeel
p1823
I1
sVabh
p1824
I1
sVsum
p1825
I8
sVkur
p1826
I1
sVfta
p1827
I3
sViri
p1828
I2
sVain
p1829
I20
sVney
p1830
I4
sVaja
p1831
I3
sVesh
p1832
I3
sVmed
p1833
I8
sVcha
p1834
I3
sVqua
p1835
I3
sVika
p1836
I12
sVwal
p1837
I108
sVque
p1838
I11
sVori
p1839
I2
sVqui
p1840
I14
sVley
p1841
I2
sVikh
p1842
I2
sVnte
p1843
I2
sVwaj
p1844
I17
sVata
p1845
I1
sVnda
p1846
I2
sVhna
p1847
I2
sVjia
p1848
I3
sVath
p1849
I6
sVati
p1850
I8
sVeta
p1851
I2
sVyum
p1852
I1
sVboo
p1853
I1
sVdra
p1854
I10
sVisa
p1855
I2
sVkin
p1856
I2
sVaha
p1857
I5
sVvie
p1858
I1
sVngh
p1859
I6
sVdas
p1860
I2
sVtav
p1861
I10
sVyap
p1862
I9
sVvir
p1863
I1
sVony
p1864
I2
sVyya
p1865
I3
sVbra
p1866
I3
sVsan
p1867
I1
sViam
p1868
I2
sVwan
p1869
I1
sVore
p1870
I9
sVzir
p1871
I2
sVgir
p1872
I1
sVwah
p1873
I4
sVyaq
p1874
I1
sVwab
p1875
I1
sVmar
p1876
I5
sVyar
p1877
I4
sVyam
p1878
I3
sVyal
p1879
I4
sVyan
p1880
I4
sVfer
p1881
I1
sVoli
p1882
I2
sVvas
p1883
I1
sVwat
p1884
I10
sVwar
p1885
I14
sVhek
p1886
I2
sVnka
p1887
I10
sVrsi
p1888
I1
sVash
p1889
I5
sVgav
p1890
I2
sVmad
p1891
I6
sVngs
p1892
I1
sVgar
p1893
I9
sVkar
p1894
I14
sVoot
p1895
I2
sVgal
p1896
I1
sVogi
p1897
I7
sVoor
p1898
I6
sVzai
p1899
I2
sVhma
p1900
I2
sVnki
p1901
I4
sViye
p1902
I2
sViya
p1903
I30
sVute
p1904
I1
sVder
p1905
I2
sVila
p1906
I2
sVery
p1907
I2
sVara
p1908
I2
sVank
p1909
I2
sVbey
p1910
I7
sVdel
p1911
I2
sVera
p1912
I1
sVaya
p1913
I2
sVber
p1914
I2
sVeri
p1915
I1
sVaaz
p1916
I5
sVand
p1917
I2
sVrva
p1918
I1
sVana
p1919
I29
sVran
p1920
I1
sVral
p1921
I1
sVram
p1922
I1
sVani
p1923
I26
sVsad
p1924
I1
sVant
p1925
I5
sVavi
p1926
I1
sVour
p1927
I1
sVava
p1928
I51
sVhet
p1929
I1
sVria
p1930
I4
sVeja
p1931
I1
sVlia
p1932
I1
sVmin
p1933
I3
sVnan
p1934
I2
sVnum
p1935
I1
sVlik
p1936
I3
sVsia
p1937
I12
sVnav
p1938
I2
sVgra
p1939
I6
sVpal
p1940
I4
sVlam
p1941
I3
sVoon
p1942
I7
sVlah
p1943
I6
sVena
p1944
I2
sVpha
p1945
I1
sVhbu
p1946
I1
sVlay
p1947
I1
sVmah
p1948
I1
sVman
p1949
I4
sVeya
p1950
I2
sVdok
p1951
I2
sVeed
p1952
I2
sVuri
p1953
I2
sVthi
p1954
I13
sVtha
p1955
I10
stp1956
Rp1957
sg48
I549
sg49
F4839.5
sbs(g10
g1289
tp1958
g0
(g17
g2
Ntp1959
Rp1960
(dp1961
g21
F0.5
sg22
I4565
sg23
g24
((dp1962
Vilay
p1963
I1
sVhnan
p1964
I2
sVafiq
p1965
I1
sVraja
p1966
I3
sVwaha
p1967
I5
sVtiye
p1968
I2
sVasia
p1969
I10
sVtiya
p1970
I3
sVhnav
p1971
I2
sVhyay
p1972
I8
sVotri
p1973
I3
sVrika
p1974
I1
sVanyu
p1975
I2
sVmmil
p1976
I1
sVotra
p1977
I8
sVthan
p1978
I3
sVnkar
p1979
I2
sVswat
p1980
I3
sVsiya
p1981
I2
sVufta
p1982
I3
sVddin
p1983
I12
sVgava
p1984
I1
sVmmad
p1985
I5
sVahad
p1986
I2
sVdary
p1987
I2
sVijay
p1988
I1
sVdari
p1989
I2
sVhtva
p1990
I2
sVkshi
p1991
I2
sVlvie
p1992
I1
sVksha
p1993
I2
sVstha
p1994
I6
sVathi
p1995
I7
sVnisa
p1996
I2
sNI3989
sVekar
p1997
I2
sVmath
p1998
I1
sVheed
p1999
I2
sVsana
p2000
I1
sVngir
p2001
I1
sVkram
p2002
I1
sVchet
p2003
I1
sVhari
p2004
I3
sVdiya
p2005
I3
sVhboo
p2006
I1
sVskin
p2007
I2
sVndra
p2008
I7
sVoori
p2009
I1
sVlwal
p2010
I7
sVhary
p2011
I29
sVkant
p2012
I2
sVnaaz
p2013
I3
sVshma
p2014
I1
sVisht
p2015
I3
sVawar
p2016
I2
sVingh
p2017
I6
sVtava
p2018
I50
sVawat
p2019
I7
sVsain
p2020
I2
sVmedi
p2021
I1
sVoqui
p2022
I3
sVawab
p2023
I1
sVwati
p2024
I1
sVishi
p2025
I3
sVvedi
p2026
I6
sVings
p2027
I1
sVhtha
p2028
I3
sVrwal
p2029
I21
sVefer
p2030
I1
sVamed
p2031
I3
sVazir
p2032
I2
sVhery
p2033
I2
sVpati
p2034
I5
sVliya
p2035
I2
sValla
p2036
I1
sVajit
p2037
I2
sViwal
p2038
I3
sVheen
p2039
I2
sVeesh
p2040
I1
sVjeet
p2041
I1
sVasha
p2042
I3
sVhmed
p2043
I2
sVhita
p2044
I1
sVajid
p2045
I2
sVmila
p2046
I2
sVnder
p2047
I2
sVauri
p2048
I2
sVhkar
p2049
I1
sVayya
p2050
I1
sVwala
p2051
I1
sVshra
p2052
I1
sVwall
p2053
I1
sVrani
p2054
I2
sVdini
p2055
I2
sVghas
p2056
I1
sVapha
p2057
I1
sVdran
p2058
I1
sVkhan
p2059
I7
sVayan
p2060
I2
sVanda
p2061
I2
sVmari
p2062
I2
sVhney
p2063
I2
sVuria
p2064
I1
sVayay
p2065
I2
sVmmed
p2066
I2
sVeena
p2067
I1
sVrsia
p2068
I2
sVhiya
p2069
I3
sVarma
p2070
I14
sVimah
p2071
I1
sVtoon
p2072
I1
sValam
p2073
I3
sVshek
p2074
I2
sVwari
p2075
I3
sVeshi
p2076
I3
sVakar
p2077
I2
sVreen
p2078
I1
sVwara
p2079
I2
sVique
p2080
I11
sVnnum
p2081
I1
sVmeen
p2082
I1
sViqua
p2083
I3
sVipal
p2084
I2
sValia
p2085
I1
sVahan
p2086
I1
sVllah
p2087
I6
sViqui
p2088
I10
sVegum
p2089
I1
sVagar
p2090
I9
sValik
p2091
I2
sVdani
p2092
I1
sVthil
p2093
I1
sVzeer
p2094
I2
sVdwaj
p2095
I17
sViyaq
p2096
I1
sVfzai
p2097
I2
sVwani
p2098
I5
sVdeen
p2099
I3
sVadha
p2100
I2
sVumar
p2101
I5
sViyal
p2102
I3
sVmiri
p2103
I2
sVshar
p2104
I6
sVstva
p2105
I2
sVnshi
p2106
I8
sVdkar
p2107
I1
sVhank
p2108
I2
sVnshu
p2109
I4
sVnpal
p2110
I2
sVsham
p2111
I2
sVstav
p2112
I10
sVanka
p2113
I9
sVkori
p2114
I1
sVssum
p2115
I8
sVupta
p2116
I1
sVjiya
p2117
I2
sVeeta
p2118
I2
sVhant
p2119
I1
sVsali
p2120
I1
sVland
p2121
I2
sVriya
p2122
I10
sVarsi
p2123
I1
sVlani
p2124
I2
sVhman
p2125
I2
sVaikh
p2126
I2
sVndar
p2127
I2
sVulla
p2128
I1
sVnwal
p2129
I1
stp2130
Rp2131
sg48
I692
sg49
F4911.0
sbs(g9
g60
tp2132
g0
(g17
g2
Ntp2133
Rp2134
(dp2135
g21
F0.5
sg22
I3075
sg23
g24
((dp2136
Vvadh
p2137
I3
sVganv
p2138
I3
sVkatr
p2139
I2
sVsuni
p2140
I3
sVgang
p2141
I3
sVgand
p2142
I9
sVgane
p2143
I2
sVdish
p2144
I5
sVnagr
p2145
I1
sVkate
p2146
I1
sVvanj
p2147
I2
sVyera
p2148
I2
sVswat
p2149
I1
sVtail
p2150
I4
sVugal
p2151
I3
sVkumb
p2152
I13
sVkuma
p2153
I12
sVswar
p2154
I2
sVvaze
p2155
I1
sVheda
p2156
I2
sVkeda
p2157
I2
sVsona
p2158
I12
sVrish
p2159
I2
sVsoni
p2160
I16
sVvasa
p2161
I5
sVkapa
p2162
I5
sVsont
p2163
I3
sVsonv
p2164
I2
sVkshi
p2165
I1
sVfalg
p2166
I1
sVvasu
p2167
I1
sVrokd
p2168
I1
sVsant
p2169
I3
sVmaha
p2170
I6
sVmahe
p2171
I6
sVsang
p2172
I10
sVsand
p2173
I3
sVmahy
p2174
I1
sVtums
p2175
I2
sVsana
p2176
I3
sVsanj
p2177
I2
sVrach
p2178
I2
sVridd
p2179
I3
sVgugw
p2180
I2
sVjuml
p2181
I1
sVsaya
p2182
I1
sVnaik
p2183
I9
sVratn
p2184
I3
sVpedn
p2185
I1
sVrath
p2186
I21
sVkrit
p2187
I1
sVarvi
p2188
I2
sVgunj
p2189
I1
sVsapk
p2190
I2
sVnana
p2191
I1
sVgoel
p2192
I2
sVnand
p2193
I4
sVgowr
p2194
I1
sVmogh
p2195
I2
sVkrim
p2196
I1
sVtand
p2197
I1
sVdias
p2198
I1
sVkamb
p2199
I14
sVgawa
p2200
I8
sVwain
p2201
I2
sVpatw
p2202
I1
sVkamd
p2203
I1
sVgawl
p2204
I2
sVnawl
p2205
I1
sVmula
p2206
I2
sVkaml
p2207
I2
sVpata
p2208
I9
sVbodh
p2209
I1
sVbodk
p2210
I1
sVjanv
p2211
I2
sVpate
p2212
I129
sVfulz
p2213
I1
sVwadh
p2214
I1
sVpati
p2215
I80
sVpath
p2216
I6
sVsind
p2217
I4
sVpato
p2218
I1
sVpatn
p2219
I1
sVtapa
p2220
I1
sVachl
p2221
I2
sVjams
p2222
I1
sVbhus
p2223
I2
sVbhur
p2224
I1
sVbhuw
p2225
I2
sVjamd
p2226
I2
sVbhuj
p2227
I3
sVbhum
p2228
I1
sVjama
p2229
I1
sVrahe
p2230
I2
sVsawa
p2231
I15
sVrazd
p2232
I2
sVhima
p2233
I2
sVdhum
p2234
I3
sVgosw
p2235
I7
sVsrik
p2236
I1
sVburh
p2237
I2
sVlimj
p2238
I2
sVsirs
p2239
I1
sVgosa
p2240
I2
sVlimb
p2241
I2
sVdhur
p2242
I3
sVlimd
p2243
I2
sVdudh
p2244
I2
sVkhai
p2245
I4
sVkhan
p2246
I6
sVandh
p2247
I2
sVbhik
p2248
I2
sVkham
p2249
I5
sVbhid
p2250
I2
sVlaxm
p2251
I2
sVkhad
p2252
I7
sVdeok
p2253
I1
sVwank
p2254
I6
sVkhar
p2255
I5
sVkhas
p2256
I1
sVmora
p2257
I1
sVsakp
p2258
I2
sVkhat
p2259
I4
sVmore
p2260
I16
sVsort
p2261
I2
sVmihi
p2262
I2
sVmusa
p2263
I2
sVpudi
p2264
I2
sVmira
p2265
I2
sVkoma
p2266
I5
sVlore
p2267
I2
sVwark
p2268
I4
sVwarh
p2269
I2
sVwari
p2270
I1
sVomsa
p2271
I2
sVzamb
p2272
I2
sVkeva
p2273
I2
sVsoiw
p2274
I1
sValif
p2275
I2
sVtowa
p2276
I1
sVdaft
p2277
I1
sVmalh
p2278
I2
sVmali
p2279
I4
sVamru
p2280
I4
sVmecw
p2281
I2
sVmala
p2282
I2
sVabcd
p2283
I2
sVvaka
p2284
I1
sVchir
p2285
I1
sVpawa
p2286
I20
sVmehd
p2287
I2
sVmehe
p2288
I2
sVsudh
p2289
I1
sVmeha
p2290
I1
sVchin
p2291
I3
sVbend
p2292
I1
sVvakt
p2293
I2
sVgeda
p2294
I2
sVmeht
p2295
I47
sVmehr
p2296
I1
sVsatp
p2297
I2
sVrami
p2298
I2
sVjuve
p2299
I1
sVdhim
p2300
I2
sVsatw
p2301
I1
sVnarw
p2302
I1
sVnarv
p2303
I1
sVsata
p2304
I3
sVnaro
p2305
I1
sVrayc
p2306
I2
sVlamt
p2307
I1
sVsath
p2308
I3
sVsati
p2309
I1
sVkaja
p2310
I2
sVnara
p2311
I1
sVtayd
p2312
I1
sVchri
p2313
I3
sVkaje
p2314
I1
sVshar
p2315
I9
sVfarg
p2316
I2
sVbawa
p2317
I2
sVabdu
p2318
I2
sVshas
p2319
I2
sVdatt
p2320
I2
sVdive
p2321
I2
sVbawn
p2322
I1
sVmest
p2323
I1
sVmesh
p2324
I8
sVdivy
p2325
I3
sVsuch
p2326
I2
sVarch
p2327
I2
sVloha
p2328
I1
sVataw
p2329
I2
sVdeva
p2330
I5
sVgajb
p2331
I1
sVvrun
p2332
I2
sVgaja
p2333
I1
sVdevk
p2334
I2
sVdevi
p2335
I1
sVniph
p2336
I2
sVgajj
p2337
I5
sVdevm
p2338
I2
sVkura
p2339
I4
sVtale
p2340
I1
sVdevr
p2341
I1
sVjaim
p2342
I2
sVjain
p2343
I2
sVamit
p2344
I2
sVkurt
p2345
I2
sVvika
p2346
I1
sVnikh
p2347
I2
sVvars
p2348
I1
sVghag
p2349
I1
sVgupt
p2350
I2
sVpany
p2351
I2
sVhely
p2352
I2
sVbhag
p2353
I6
sVpanc
p2354
I16
sVvarg
p2355
I2
sVpand
p2356
I16
sVpank
p2357
I4
sVrana
p2358
I4
sVvohr
p2359
I3
sVlatt
p2360
I2
sVnimk
p2361
I1
sVtora
p2362
I2
sVprat
p2363
I5
sVprav
p2364
I2
sVmerc
p2365
I2
sVnimb
p2366
I4
sVpura
p2367
I1
sVlate
p2368
I3
sVgura
p2369
I5
sVkhek
p2370
I2
sVkhed
p2371
I3
sVpraj
p2372
I10
sVpram
p2373
I2
sVpran
p2374
I2
sVanil
p2375
I3
sVgare
p2376
I1
sVghug
p2377
I1
sVbans
p2378
I7
sVyada
p2379
I4
sVkish
p2380
I3
sVghul
p2381
I4
sVbama
p2382
I2
sVshaj
p2383
I1
sVmomi
p2384
I1
sVmrun
p2385
I2
sVrank
p2386
I2
sVghut
p2387
I2
sVdiks
p2388
I2
sVraks
p2389
I1
sVbank
p2390
I2
sVhaln
p2391
I1
sVdabh
p2392
I5
sVkach
p2393
I4
sVpuro
p2394
I2
sVtrai
p2395
I2
sNI124
sVmoda
p2396
I2
sVjuhi
p2397
I2
sVmodi
p2398
I10
sVbond
p2399
I4
sVnava
p2400
I1
sVharm
p2401
I1
sVjiga
p2402
I1
sVkank
p2403
I2
sVhari
p2404
I2
sVharg
p2405
I2
sVkang
p2406
I2
sVkand
p2407
I1
sVbhar
p2408
I6
sVjign
p2409
I7
sVnavl
p2410
I2
sVkana
p2411
I5
sVgire
p2412
I1
sVdawa
p2413
I1
sVadit
p2414
I3
sVgirm
p2415
I2
sVhars
p2416
I3
sVkans
p2417
I3
sVomba
p2418
I1
sVdola
p2419
I2
sVphut
p2420
I1
sVkenj
p2421
I1
sVbhay
p2422
I1
sVkeni
p2423
I3
sVwada
p2424
I2
sVmate
p2425
I1
sVdapt
p2426
I1
sVnite
p2427
I2
sVmato
p2428
I1
sVniti
p2429
I1
sVnith
p2430
I1
sVphul
p2431
I3
sVhule
p2432
I2
sVgoth
p2433
I1
sVbhos
p2434
I7
sVshur
p2435
I2
sVkaus
p2436
I2
sVmesw
p2437
I2
sVundr
p2438
I1
sVjina
p2439
I3
sVhand
p2440
I2
sVsilv
p2441
I1
sVshuk
p2442
I8
sVbash
p2443
I2
sVpung
p2444
I1
sVyesh
p2445
I2
sVbaxi
p2446
I2
sVsahi
p2447
I1
sVyesa
p2448
I1
sVpuns
p2449
I2
sVkund
p2450
I1
sVsuvi
p2451
I1
sVtura
p2452
I1
sVrane
p2453
I5
sVpada
p2454
I3
sVrang
p2455
I3
sVdind
p2456
I1
sVmisk
p2457
I1
sVbhab
p2458
I2
sVbhal
p2459
I5
sVnach
p2460
I2
sVbhan
p2461
I4
sVbhai
p2462
I8
sVsach
p2463
I3
sVbhak
p2464
I1
sVbhat
p2465
I13
sVbhav
p2466
I12
sVdone
p2467
I1
sVbhap
p2468
I1
sVdong
p2469
I5
sVwasn
p2470
I2
sVjoga
p2471
I2
sVauti
p2472
I2
sVmist
p2473
I13
sVmiss
p2474
I2
sVagra
p2475
I2
sVtath
p2476
I1
sVzala
p2477
I2
sVkari
p2478
I1
sVrddy
p2479
I2
sVmamt
p2480
I3
sVjugd
p2481
I1
sVpotf
p2482
I1
sVpotd
p2483
I3
sVyusu
p2484
I1
sVanur
p2485
I2
sVakan
p2486
I1
sVswap
p2487
I2
sVgokh
p2488
I3
sVpaba
p2489
I2
sVpara
p2490
I4
sVpore
p2491
I1
sVparm
p2492
I29
sVashe
p2493
I2
sVpark
p2494
I3
sVtalw
p2495
I2
sVpari
p2496
I12
sVrawa
p2497
I2
sVanuj
p2498
I2
sVthan
p2499
I2
sVking
p2500
I1
sVchal
p2501
I2
sVgaya
p2502
I2
sVkinj
p2503
I2
sVkhak
p2504
I1
sVwako
p2505
I2
sVrake
p2506
I2
sVdani
p2507
I1
sVarun
p2508
I1
sVdand
p2509
I5
sVvije
p2510
I1
sVkarp
p2511
I2
sVkarv
p2512
I2
sVpadw
p2513
I1
sVnyam
p2514
I1
sVghod
p2515
I2
sVmina
p2516
I3
sVrjya
p2517
I2
sVdher
p2518
I1
sVneem
p2519
I2
sVlokh
p2520
I7
sVkara
p2521
I3
sVkard
p2522
I1
sVseem
p2523
I4
sVloka
p2524
I2
sVnazi
p2525
I1
sVghor
p2526
I4
sVghos
p2527
I2
sVkush
p2528
I1
sVyuvr
p2529
I2
sVbaro
p2530
I5
sVmemo
p2531
I1
sVakol
p2532
I1
sVmacw
p2533
I1
sVpaik
p2534
I2
sVvisp
p2535
I1
sVsure
p2536
I5
sVkoka
p2537
I1
sVsura
p2538
I6
sVamal
p2539
I1
sVaman
p2540
I3
sVkhot
p2541
I2
sVkoki
p2542
I1
sValam
p2543
I1
sVsurw
p2544
I1
sVkhol
p2545
I1
sVamar
p2546
I1
sVvish
p2547
I5
sVkhod
p2548
I1
sVdevy
p2549
I1
sVdesa
p2550
I21
sVgopa
p2551
I2
sVsalm
p2552
I1
sVsala
p2553
I2
sVpuja
p2554
I1
sVaksh
p2555
I5
sVbopu
p2556
I1
sVyewa
p2557
I1
sVwaba
p2558
I1
sVasif
p2559
I1
sVsalp
p2560
I1
sVsalu
p2561
I8
sVsalv
p2562
I8
sVgore
p2563
I5
sVnagv
p2564
I2
sVbomb
p2565
I1
sVrajn
p2566
I1
sVsaga
p2567
I2
sVsaik
p2568
I1
sVraje
p2569
I6
sVsapa
p2570
I1
sVpriy
p2571
I6
sVthak
p2572
I16
sVdupa
p2573
I2
sVrupa
p2574
I3
sVnaga
p2575
I4
sVrajp
p2576
I3
sVbaik
p2577
I2
sVbuta
p2578
I2
sVbain
p2579
I2
sVmuke
p2580
I1
sVkadi
p2581
I2
sVnala
p2582
I1
sVpunj
p2583
I2
sVupad
p2584
I8
sVnale
p2585
I2
sVruks
p2586
I1
sVrasn
p2587
I1
sVkada
p2588
I13
sVrask
p2589
I2
sVavan
p2590
I3
sVkesh
p2591
I1
sVupas
p2592
I2
sVrich
p2593
I3
sVmend
p2594
I1
sVkoya
p2595
I3
sVkadu
p2596
I1
sVkadv
p2597
I2
sVkaka
p2598
I3
sVabba
p2599
I1
sVmund
p2600
I2
sVkond
p2601
I1
sVpava
p2602
I2
sVvaja
p2603
I2
sVmuna
p2604
I1
sVtaya
p2605
I1
sVkaku
p2606
I2
sVpist
p2607
I2
sVraja
p2608
I2
sVambe
p2609
I2
sVdhir
p2610
I1
sVkopp
p2611
I1
sVpare
p2612
I13
sVveka
p2613
I1
sVravj
p2614
I1
sVlall
p2615
I1
sVnish
p2616
I3
sVjasm
p2617
I2
sVlali
p2618
I1
sVpimp
p2619
I1
sVnrav
p2620
I2
sVgaur
p2621
I2
sVjasv
p2622
I1
sVradk
p2623
I2
sVvedi
p2624
I2
sVvini
p2625
I2
sVbars
p2626
I2
sVbles
p2627
I1
sVgawd
p2628
I3
sVvina
p2629
I2
sVpadh
p2630
I2
sVjade
p2631
I1
sVjada
p2632
I6
sVmhat
p2633
I6
sVvarm
p2634
I1
sVdumb
p2635
I1
sVmadh
p2636
I3
sVbarg
p2637
I2
sVpadv
p2638
I1
sVhash
p2639
I2
sVdsfk
p2640
I1
sVawar
p2641
I1
sVsaie
p2642
I1
sVsabl
p2643
I6
sVsain
p2644
I1
sVritu
p2645
I1
sVrits
p2646
I2
sVinga
p2647
I1
sVambr
p2648
I1
sVradh
p2649
I3
sVjatv
p2650
I2
sVwayc
p2651
I2
sVgagl
p2652
I1
sVshre
p2653
I3
sVamba
p2654
I4
sVsaiy
p2655
I5
sVlakh
p2656
I2
sVnewa
p2657
I1
sVnike
p2658
I1
sVjetl
p2659
I2
sVdhru
p2660
I5
sVsola
p2661
I14
sVmagi
p2662
I2
sVmagh
p2663
I2
sVjoba
p2664
I2
sVmhad
p2665
I2
sVmaga
p2666
I4
sVvais
p2667
I4
sVlass
p2668
I1
sVmant
p2669
I2
sVtawa
p2670
I2
sVmona
p2671
I2
sVramt
p2672
I5
sVoded
p2673
I1
sVnila
p2674
I1
sVthop
p2675
I2
sVnile
p2676
I3
sVmegh
p2677
I4
sVmana
p2678
I1
sVramo
p2679
I1
sVmand
p2680
I2
sVmane
p2681
I18
sVmang
p2682
I2
sVrame
p2683
I4
sVmank
p2684
I2
sVkhet
p2685
I2
sVvaid
p2686
I2
sVjayn
p2687
I1
sVshik
p2688
I1
sVjosh
p2689
I26
sVjayd
p2690
I4
sVghon
p2691
I1
sVbele
p2692
I2
sVdhan
p2693
I5
sVgitt
p2694
I1
sVwalu
p2695
I3
sVnakh
p2696
I1
sVnaki
p2697
I3
sVsing
p2698
I4
sVrave
p2699
I3
sVbavi
p2700
I1
sVjays
p2701
I2
sVrava
p2702
I15
sVpatk
p2703
I2
sVgohi
p2704
I7
sVjave
p2705
I1
sVmarg
p2706
I1
sVsaro
p2707
I2
sVmaro
p2708
I1
sVsneh
p2709
I6
sVsard
p2710
I2
sVmaru
p2711
I3
sVjadh
p2712
I43
sVinam
p2713
I1
sVdamo
p2714
I2
sVtina
p2715
I2
sVsupl
p2716
I1
sVhing
p2717
I1
sVzade
p2718
I1
sVayar
p2719
I3
sVsarw
p2720
I1
sVtaas
p2721
I2
sVchud
p2722
I5
sVwagh
p2723
I8
sVdixi
p2724
I3
sVkotw
p2725
I2
sVneha
p2726
I6
sVnaya
p2727
I5
sVshig
p2728
I1
sVkotn
p2729
I2
sVdave
p2730
I15
sVmans
p2731
I1
sVdhek
p2732
I2
sVvand
p2733
I1
sVkoth
p2734
I11
sVkoti
p2735
I1
sVvani
p2736
I1
sVkote
p2737
I1
sVprak
p2738
I7
sVdavi
p2739
I1
sVnare
p2740
I3
sVvagh
p2741
I7
sVmanw
p2742
I1
sVagan
p2743
I2
sVtana
p2744
I1
sVagal
p2745
I1
sVagas
p2746
I1
sVtanv
p2747
I3
sVpach
p2748
I1
sVudaw
p2749
I1
sVcont
p2750
I3
sVkukd
p2751
I2
sVviru
p2752
I1
sVsush
p2753
I1
sVhend
p2754
I1
sVuday
p2755
I1
sVprab
p2756
I10
sVcant
p2757
I1
sVsaww
p2758
I1
sVjyos
p2759
I1
sVudan
p2760
I1
sVthor
p2761
I5
sVvira
p2762
I4
sVvora
p2763
I6
sVjyot
p2764
I2
sVhone
p2765
I1
sVbhoj
p2766
I1
sVvyav
p2767
I1
sVnika
p2768
I6
sVbhol
p2769
I2
sVshiv
p2770
I4
sVsama
p2771
I4
sVniki
p2772
I2
sVmaka
p2773
I1
sVbaga
p2774
I1
sVniku
p2775
I2
sVmakw
p2776
I4
sVhite
p2777
I1
sVshah
p2778
I110
sVshai
p2779
I1
sVsamu
p2780
I2
sVsham
p2781
I2
sVdimb
p2782
I2
sVsada
p2783
I1
sVball
p2784
I2
sVsadh
p2785
I2
sVanki
p2786
I2
sVgude
p2787
I1
sVdimp
p2788
I2
sVanku
p2789
I1
sVmani
p2790
I7
sVdine
p2791
I2
sVghum
p2792
I1
sVmoka
p2793
I3
sVbalp
p2794
I1
sVband
p2795
I1
sVphat
p2796
I2
sVseth
p2797
I1
sVphar
p2798
I2
sVakki
p2799
I2
sVsaki
p2800
I2
sVdoct
p2801
I2
sVdosh
p2802
I20
sVkale
p2803
I9
sVwaha
p2804
I2
sVkalk
p2805
I1
sVvipu
p2806
I1
sVkalo
p2807
I1
sVgodi
p2808
I3
sVpaun
p2809
I1
sVgoda
p2810
I1
sVjari
p2811
I1
sVnirw
p2812
I1
sVdhag
p2813
I2
sVnirp
p2814
I2
sVtaan
p2815
I1
sVsaku
p2816
I1
sVmhal
p2817
I2
sVsavs
p2818
I2
sVdham
p2819
I3
sVdhal
p2820
I2
sVdhar
p2821
I1
sVnirg
p2822
I1
sVnira
p2823
I3
sVdhav
p2824
I2
sVsavi
p2825
I2
sVnata
p2826
I2
sVgava
p2827
I1
sVotaw
p2828
I1
sVadha
p2829
I2
sVsava
p2830
I1
sVmaya
p2831
I2
sVjaka
p2832
I1
sVdesu
p2833
I2
sVfati
p2834
I1
sVmayn
p2835
I1
sVshwe
p2836
I2
sVmayu
p2837
I2
sVdarj
p2838
I2
sVseva
p2839
I2
sVdesh
p2840
I14
sVdarm
p2841
I2
sVdara
p2842
I3
sVkasa
p2843
I1
sVkhus
p2844
I2
sVvino
p2845
I1
sVkasb
p2846
I2
sVsofi
p2847
I2
sVgadh
p2848
I3
sVlikh
p2849
I1
sVgade
p2850
I2
sVgada
p2851
I1
sVketu
p2852
I1
sVzave
p2853
I2
sVsuta
p2854
I1
sVkulb
p2855
I1
sVpith
p2856
I3
sVhund
p2857
I2
sVsuth
p2858
I3
sVvakh
p2859
I2
sVkulk
p2860
I21
sVkolt
p2861
I3
sVshee
p2862
I4
sVmohs
p2863
I1
sVlipi
p2864
I2
sVshel
p2865
I5
sVhuss
p2866
I1
sVbors
p2867
I1
sVshek
p2868
I2
sVdole
p2869
I1
sVshei
p2870
I1
sVshev
p2871
I2
sVborn
p2872
I2
sVpalk
p2873
I2
sVkole
p2874
I4
sVsher
p2875
I1
sVtriv
p2876
I13
sVkola
p2877
I3
sVmoho
p2878
I2
sVmunj
p2879
I1
sVmohi
p2880
I10
sVkolh
p2881
I3
sVkoli
p2882
I2
sVakht
p2883
I4
sVrohi
p2884
I1
sVmedh
p2885
I2
sVraju
p2886
I3
sVmoon
p2887
I2
sVnoor
p2888
I1
sVdhod
p2889
I2
sVloda
p2890
I2
sVanne
p2891
I2
sVbokh
p2892
I2
sVanna
p2893
I2
sVraut
p2894
I11
sVburd
p2895
I1
sVstef
p2896
I2
sVposh
p2897
I1
sVburb
p2898
I1
sVnidh
p2899
I4
sVmits
p2900
I2
sVdhaw
p2901
I5
sVheta
p2902
I5
sVmory
p2903
I1
sVmith
p2904
I1
sVpaga
p2905
I2
sVraul
p2906
I2
sVgomt
p2907
I2
sVraun
p2908
I2
sVacha
p2909
I2
sVmara
p2910
I5
sVhard
p2911
I4
sVashi
p2912
I1
sVashk
p2913
I1
sVpagd
p2914
I2
sVasha
p2915
I3
sVchop
p2916
I2
sVchou
p2917
I4
sVchow
p2918
I2
sVmudl
p2919
I1
sVedke
p2920
I2
sVkapu
p2921
I2
sVghad
p2922
I1
sVsara
p2923
I2
sVshra
p2924
I1
sVkaps
p2925
I2
sVghan
p2926
I3
sVgham
p2927
I3
sVshed
p2928
I1
sVshri
p2929
I5
sVaesh
p2930
I1
sVshru
p2931
I4
sVghar
p2932
I1
sVbeen
p2933
I1
sVajay
p2934
I3
sVpaya
p2935
I1
sVpayg
p2936
I2
sVsubh
p2937
I1
sVliga
p2938
I2
sVaary
p2939
I2
sVdewd
p2940
I1
sVnavg
p2941
I1
sVtamb
p2942
I1
sVtama
p2943
I2
sVlone
p2944
I2
sVshen
p2945
I2
sVpalw
p2946
I2
sVmuch
p2947
I1
sVjani
p2948
I7
sVunad
p2949
I2
sVaaro
p2950
I2
sVjane
p2951
I1
sVmach
p2952
I1
sVhare
p2953
I1
sVkhir
p2954
I1
sVutek
p2955
I1
sVpakh
p2956
I2
sVhoda
p2957
I2
sVustu
p2958
I1
sVtrup
p2959
I2
sVjaga
p2960
I2
sVjagd
p2961
I1
sVharb
p2962
I2
sVgaik
p2963
I16
sVteli
p2964
I1
sVbach
p2965
I1
sVdipa
p2966
I1
sVsarp
p2967
I1
sVjagt
p2968
I9
sVkhim
p2969
I1
sVboro
p2970
I1
sVhire
p2971
I2
sVraga
p2972
I1
sVhira
p2973
I2
sVsupr
p2974
I1
sVshet
p2975
I8
sVahir
p2976
I4
sVmorg
p2977
I1
sVarna
p2978
I1
sVtemb
p2979
I2
sVatta
p2980
I2
sVbork
p2981
I1
sVbhir
p2982
I1
sVdeha
p2983
I1
sVsupe
p2984
I1
sVchip
p2985
I2
sVgond
p2986
I1
sVjhal
p2987
I2
sVraha
p2988
I6
sVjhan
p2989
I2
sVshin
p2990
I25
sVsury
p2991
I3
sVchak
p2992
I1
sVchai
p2993
I2
sVchan
p2994
I6
sVvans
p2995
I2
sVdeep
p2996
I2
sVlawa
p2997
I2
sVchar
p2998
I3
sVchav
p2999
I21
sVumat
p3000
I1
sVanju
p3001
I2
sVchau
p3002
I25
sVshir
p3003
I6
sVzens
p3004
I1
sVjhav
p3005
I1
sVnere
p3006
I2
sVtrip
p3007
I2
sVshit
p3008
I1
sVbadg
p3009
I1
sVyogi
p3010
I2
sVkrup
p3011
I2
sVkiri
p3012
I3
sVsomw
p3013
I1
sVvyas
p3014
I12
sVkira
p3015
I3
sVdhol
p3016
I2
sVdhon
p3017
I1
sVdala
p3018
I3
sVdhok
p3019
I2
sVkord
p3020
I1
sVkore
p3021
I2
sVsakh
p3022
I5
sVjund
p3023
I1
sVdhob
p3024
I2
sVneet
p3025
I1
sVdalv
p3026
I6
sVjaya
p3027
I2
sVpooj
p3028
I8
sVvija
p3029
I6
sVpoon
p3030
I1
sVpapp
p3031
I1
sVnatv
p3032
I2
sVland
p3033
I2
sVsasp
p3034
I2
sVthum
p3035
I2
sVvich
p3036
I1
sVjalp
p3037
I1
sVadat
p3038
I2
sVlanj
p3039
I1
sVmasi
p3040
I1
sVmash
p3041
I1
sVjuth
p3042
I1
sVsasa
p3043
I1
sVbhiv
p3044
I1
sVadag
p3045
I1
stp3046
Rp3047
sg48
I2515
sg49
F4332.5
sbs(g10
g15
tp3048
g0
(g17
g2
Ntp3049
Rp3050
(dp3051
g21
F0.5
sg22
I4565
sg23
g24
((dp3052
g26
I10
sg27
I1064
sg28
I15
sg29
I65
sg30
I159
sg31
I5
sVf
p3053
I29
sg32
I448
sg33
I357
sg34
I58
sg35
I26
sg36
I130
sg37
I261
sNI840
sg38
I319
sVq
p3054
I8
sg39
I11
sg40
I23
sg41
I398
sg42
I21
sg43
I88
sg57
I2
sg44
I82
sg45
I119
sVz
p3055
I27
stp3056
Rp3057
sg48
I27
sg49
F4578.5
sbs(g10
g50
tp3058
g0
(g17
g2
Ntp3059
Rp3060
(dp3061
g21
F0.5
sg22
I4565
sg23
g24
((dp3062
g27
I485
sg56
I115
sg28
I160
sg29
I2
sg30
I105
sg31
I267
sg3053
I61
sg32
I50
sg33
I85
sg34
I662
sg35
I157
sg36
I269
sg37
I40
sg26
I3
sg38
I133
sg3054
I12
sg39
I250
sg40
I1049
sg41
I241
sg42
I23
sg43
I147
sg57
I19
sg44
I114
sg45
I81
sVx
p3063
I1
sg3055
I34
stp3064
Rp3065
sg48
I26
sg49
F4578.0
sbs(g10
S'len_name'
p3066
tp3067
g0
(g17
g2
Ntp3068
Rp3069
(dp3070
g21
F0.5
sg22
I4565
sg23
g24
((dp3071
I1
I48
sI2
I14
sI3
I128
sI4
I650
sI5
I1464
sI6
I1151
sI7
I534
sI8
I260
sI9
I139
sI10
I89
sI11
I51
sI12
I17
sI13
I8
sI14
I4
sI15
I4
sI16
I2
sI17
I1
sI18
I1
stp3072
Rp3073
sg48
I20
sg49
F4575.0
sbs(g11
g1289
tp3074
g0
(g17
g2
Ntp3075
Rp3076
(dp3077
g21
F0.5
sg22
I1444
sg23
g24
((dp3078
Vngar
p3079
I4
sVhait
p3080
I2
sVkary
p3081
I2
sVrjya
p3082
I2
sVhnab
p3083
I1
sVmdar
p3084
I7
sVrata
p3085
I1
sVkari
p3086
I6
sVerji
p3087
I2
sVhyay
p3088
I6
sVanik
p3089
I2
sVayee
p3090
I2
sVayak
p3091
I1
sVeeta
p3092
I1
sVkhan
p3093
I3
sVarty
p3094
I4
sVnkar
p3095
I2
sVnick
p3096
I5
sVandy
p3097
I1
sVarti
p3098
I1
sVddin
p3099
I1
sVhini
p3100
I2
sVatra
p3101
I1
sVhury
p3102
I35
sVrjee
p3103
I109
sVwati
p3104
I2
sVekha
p3105
I2
sVaman
p3106
I3
sVupta
p3107
I16
sVlino
p3108
I1
sVleen
p3109
I1
sVshna
p3110
I2
sVeeti
p3111
I2
sVmick
p3112
I7
sVwita
p3113
I2
sVryya
p3114
I4
sValya
p3115
I1
sVrman
p3116
I1
sVdran
p3117
I2
sVkdar
p3118
I2
sVakar
p3119
I13
sVlika
p3120
I2
sVorty
p3121
I57
sVarji
p3122
I2
sVstha
p3123
I2
sVmder
p3124
I10
sVhuri
p3125
I1
sNI1078
sVhmal
p3126
I2
sVajay
p3127
I2
sVriya
p3128
I2
sVrshi
p3129
I1
sVtika
p3130
I1
sVarya
p3131
I18
sVdwaj
p3132
I2
stp3133
Rp3134
sg48
I692
sg49
F1790.0
sbs(g9
g15
tp3135
g0
(g17
g2
Ntp3136
Rp3137
(dp3138
g21
F0.5
sg22
I3075
sg23
g24
((dp3139
g26
I9
sg27
I345
sg28
I4
sg29
I563
sg30
I64
sg31
I3
sg32
I380
sg33
I101
sg34
I27
sg35
I18
sg36
I43
sg37
I349
sNI517
sg38
I82
sg39
I13
sg40
I11
sg41
I350
sg42
I16
sg43
I80
sg44
I65
sg45
I34
sg3055
I1
stp3140
Rp3141
sg48
I27
sg49
F3088.5
sbs(g9
g3066
tp3142
g0
(g17
g2
Ntp3143
Rp3144
(dp3145
g21
F0.5
sg22
I3075
sg23
g24
((dp3146
I1
I68
sI2
I22
sI3
I34
sI4
I393
sI5
I811
sI6
I727
sI7
I479
sI8
I258
sI9
I148
sI10
I67
sI11
I40
sI12
I13
sI13
I8
sI14
I1
sI15
I3
sI17
I2
sI18
I1
stp3147
Rp3148
sg48
I20
sg49
F3085.0
sbs(g10
g322
tp3149
g0
(g17
g2
Ntp3150
Rp3151
(dp3152
g21
F0.5
sg22
I4565
sg23
g24
((dp3153
Vroh
p3154
I5
sVrom
p3155
I1
sValh
p3156
I1
sVali
p3157
I38
sVala
p3158
I9
sVroy
p3159
I6
sValt
p3160
I3
sValk
p3161
I2
sVgad
p3162
I3
sVver
p3163
I57
sVzma
p3164
I1
sVgoy
p3165
I15
sVfaz
p3166
I1
sVkuj
p3167
I2
sVfar
p3168
I10
sVfat
p3169
I29
sVfak
p3170
I1
sVfah
p3171
I2
sVfai
p3172
I13
sVfal
p3173
I1
sVfae
p3174
I3
sVtri
p3175
I11
sVdin
p3176
I2
sVdik
p3177
I2
sVdig
p3178
I1
sVgun
p3179
I3
sVjho
p3180
I2
sVupa
p3181
I10
sVgus
p3182
I2
sVgur
p3183
I1
sVgup
p3184
I139
sVdix
p3185
I4
sVdiv
p3186
I3
sVdiw
p3187
I1
sVdip
p3188
I1
sVtec
p3189
I1
sVrra
p3190
I1
sVtew
p3191
I3
sVsuf
p3192
I2
sVabb
p3193
I3
sVabc
p3194
I2
sVabd
p3195
I2
sVsub
p3196
I1
sVneh
p3197
I11
sVabh
p3198
I7
sVsun
p3199
I17
sVsum
p3200
I6
sVsul
p3201
I17
sVkus
p3202
I9
sVsuh
p3203
I2
sVkum
p3204
I184
sVsut
p3205
I2
sVkuk
p3206
I1
sVsur
p3207
I8
sVney
p3208
I1
sVmee
p3209
I12
sVmed
p3210
I1
sVlee
p3211
I2
sVmem
p3212
I1
sVmeh
p3213
I23
sVmer
p3214
I1
sVakr
p3215
I4
sVbor
p3216
I2
sVrdx
p3217
I2
sVdri
p3218
I2
sVakh
p3219
I3
sVakb
p3220
I2
sVaka
p3221
I4
sVvic
p3222
I3
sVvig
p3223
I1
sVvij
p3224
I1
sVvik
p3225
I8
sVapp
p3226
I1
sVwil
p3227
I2
sVvis
p3228
I11
sVvip
p3229
I1
sVbri
p3230
I1
sVbra
p3231
I3
sVape
p3232
I1
sVcha
p3233
I72
sVaye
p3234
I4
sVchi
p3235
I1
sVusm
p3236
I2
sVhem
p3237
I2
sVcho
p3238
I32
sVjam
p3239
I4
sVayy
p3240
I2
sVchu
p3241
I4
sVzia
p3242
I2
sVayu
p3243
I4
sVpus
p3244
I1
sVaje
p3245
I2
sVnar
p3246
I7
sVdey
p3247
I1
sVdep
p3248
I1
sVdev
p3249
I2
sVibr
p3250
I2
sVdee
p3251
I10
sVtat
p3252
I2
sVtav
p3253
I2
sVtar
p3254
I3
sVtas
p3255
I4
sVjha
p3256
I8
sVtay
p3257
I3
sVtab
p3258
I8
sVtal
p3259
I3
sVtam
p3260
I1
sVtan
p3261
I9
sVtah
p3262
I1
sVtaj
p3263
I5
sVtak
p3264
I2
sVsis
p3265
I2
sVsir
p3266
I3
sVsiv
p3267
I2
sVhol
p3268
I1
sVhow
p3269
I1
sVish
p3270
I5
sVafz
p3271
I1
sVsid
p3272
I23
sVaft
p3273
I1
sVdwi
p3274
I7
sVsin
p3275
I237
sVsim
p3276
I1
sVafs
p3277
I2
sVlal
p3278
I3
sVmas
p3279
I8
sVmar
p3280
I8
sVmau
p3281
I6
sVmat
p3282
I6
sVlak
p3283
I3
sVlad
p3284
I1
sVpri
p3285
I21
sVsni
p3286
I1
sVlay
p3287
I1
sVmag
p3288
I4
sVlat
p3289
I10
sVmah
p3290
I14
sVmak
p3291
I1
sVlaw
p3292
I1
sVmal
p3293
I16
sVman
p3294
I24
sVgha
p3295
I1
sVgho
p3296
I1
sVghj
p3297
I1
sVanj
p3298
I5
sVzee
p3299
I5
sVjin
p3300
I7
sVimr
p3301
I12
sVsoh
p3302
I3
sVjiy
p3303
I5
sVdil
p3304
I4
sVnoo
p3305
I11
sVdan
p3306
I2
sVdah
p3307
I4
sVsik
p3308
I3
sVdav
p3309
I3
sVahl
p3310
I2
sVdar
p3311
I1
sVdas
p3312
I2
sVnov
p3313
I2
sVson
p3314
I29
sVrau
p3315
I2
sVshu
p3316
I25
sVgud
p3317
I2
sNI62
sViff
p3318
I2
sVafr
p3319
I7
sVgul
p3320
I7
sVgol
p3321
I2
sVgon
p3322
I1
sVgok
p3323
I1
sVbag
p3324
I4
sVgoe
p3325
I7
sVres
p3326
I3
sVgoa
p3327
I1
sVrew
p3328
I1
sVrek
p3329
I1
sVreh
p3330
I12
sVren
p3331
I3
sVrem
p3332
I3
sVgou
p3333
I5
sVaja
p3334
I4
sVgov
p3335
I1
sVgop
p3336
I2
sVgos
p3337
I6
sVree
p3338
I5
sVpul
p3339
I1
sVasr
p3340
I2
sVpun
p3341
I6
sVqur
p3342
I10
sVast
p3343
I8
sVwal
p3344
I4
sVasg
p3345
I1
sVasi
p3346
I14
sVash
p3347
I9
sVasn
p3348
I2
sVpur
p3349
I2
sVasl
p3350
I5
sVval
p3351
I2
sVato
p3352
I1
sVyus
p3353
I8
sVath
p3354
I3
sVatt
p3355
I1
sVatu
p3356
I1
sVatr
p3357
I1
sVisl
p3358
I2
sVsho
p3359
I2
sVmad
p3360
I5
sVzam
p3361
I3
sVzak
p3362
I1
sVzah
p3363
I5
sVzai
p3364
I8
sVmai
p3365
I1
sVset
p3366
I6
sVzar
p3367
I2
sVkoh
p3368
I1
sVkok
p3369
I2
sVtop
p3370
I1
sVtol
p3371
I2
sVtom
p3372
I9
sVkos
p3373
I2
sVkor
p3374
I2
sVjen
p3375
I1
sVkot
p3376
I1
sVhud
p3377
I1
sVhum
p3378
I4
sVjee
p3379
I4
sVudd
p3380
I2
sVhus
p3381
I22
sVjeh
p3382
I1
sVeqb
p3383
I1
sVbel
p3384
I1
sVaal
p3385
I3
sVaan
p3386
I1
sVbeg
p3387
I11
sVaak
p3388
I1
sVstu
p3389
I1
sVaas
p3390
I1
sVaar
p3391
I6
sVaay
p3392
I2
sVbet
p3393
I1
sVpre
p3394
I4
sVrag
p3395
I5
sVsai
p3396
I25
sVsah
p3397
I30
sVrab
p3398
I2
sVana
p3399
I9
sVsam
p3400
I23
sVsal
p3401
I8
sVran
p3402
I29
sVsab
p3403
I11
sVano
p3404
I1
sVraj
p3405
I31
sVani
p3406
I1
sVrah
p3407
I24
sVrai
p3408
I10
sVrav
p3409
I4
sVraw
p3410
I8
sVrat
p3411
I16
sVanw
p3412
I7
sVras
p3413
I9
sVans
p3414
I40
sVsar
p3415
I9
sVsaq
p3416
I1
sVsap
p3417
I5
sVsaw
p3418
I2
sVany
p3419
I1
sVsau
p3420
I3
sVray
p3421
I2
sVasm
p3422
I3
sVmil
p3423
I1
sVmin
p3424
I2
sVmic
p3425
I1
sVhgg
p3426
I1
sVmis
p3427
I31
sVmir
p3428
I7
sVmit
p3429
I16
sVkab
p3430
I2
sVkag
p3431
I1
sVkad
p3432
I2
sVkak
p3433
I3
sVkah
p3434
I2
sVkan
p3435
I13
sVkam
p3436
I4
sVkal
p3437
I12
sVkas
p3438
I18
sVkar
p3439
I10
sVkap
p3440
I18
sVkav
p3441
I3
sVkau
p3442
I13
sVkat
p3443
I8
sVkaz
p3444
I7
sVawa
p3445
I6
sVdoo
p3446
I2
sVdol
p3447
I3
sVneg
p3448
I5
sVabi
p3449
I1
sVnee
p3450
I2
sVpku
p3451
I2
sVsuk
p3452
I1
sVojh
p3453
I1
sVjay
p3454
I2
sVjav
p3455
I4
sVjaw
p3456
I3
sVjat
p3457
I1
sVjan
p3458
I7
sVjal
p3459
I3
sVkul
p3460
I4
sVjaj
p3461
I1
sVjak
p3462
I1
sVjah
p3463
I7
sVjai
p3464
I68
sVjag
p3465
I1
sVjab
p3466
I3
sVabu
p3467
I2
sVhiw
p3468
I1
sVhib
p3469
I1
sVgee
p3470
I1
sVshr
p3471
I27
sVshs
p3472
I1
sVbar
p3473
I3
sVbas
p3474
I5
sVshw
p3475
I9
sVshx
p3476
I1
sVbaf
p3477
I1
sVsha
p3478
I306
sVbad
p3479
I1
sVshe
p3480
I20
sVban
p3481
I21
sVshi
p3482
I20
sVbal
p3483
I1
sVbaj
p3484
I5
sVsac
p3485
I1
sVbai
p3486
I2
sVarp
p3487
I2
sVars
p3488
I1
sVaru
p3489
I2
sVarv
p3490
I1
sVary
p3491
I9
sVnus
p3492
I1
sVara
p3493
I2
sVsee
p3494
I2
sVarc
p3495
I3
sVare
p3496
I1
sVari
p3497
I3
sVsem
p3498
I2
sVseh
p3499
I4
sVmus
p3500
I3
sVmur
p3501
I1
sVmuz
p3502
I3
sVmud
p3503
I2
sVlub
p3504
I3
sVluc
p3505
I2
sVmum
p3506
I2
sVmul
p3507
I2
sVmun
p3508
I5
sVmuk
p3509
I1
sVmuj
p3510
I5
sVken
p3511
I1
sVoma
p3512
I2
sVjos
p3513
I7
sVjod
p3514
I1
sVkew
p3515
I1
sVkes
p3516
I6
sVili
p3517
I4
sVuni
p3518
I2
sVunn
p3519
I1
sVkwa
p3520
I2
sVraf
p3521
I3
sVkwe
p3522
I2
sVrad
p3523
I1
sVpop
p3524
I2
sVpoo
p3525
I5
sVpra
p3526
I30
sVsan
p3527
I24
sVbho
p3528
I2
sVswa
p3529
I4
sVdua
p3530
I5
sVdub
p3531
I9
sVraa
p3532
I1
sVswe
p3533
I2
sVyas
p3534
I8
sVbha
p3535
I68
sVyad
p3536
I58
sVdut
p3537
I6
sVram
p3538
I6
sVgaz
p3539
I2
sVsag
p3540
I1
sVgau
p3541
I32
sVjoh
p3542
I1
sVgar
p3543
I22
sVsae
p3544
I2
sVgaf
p3545
I1
sVank
p3546
I5
sVant
p3547
I2
sVsak
p3548
I2
sVanu
p3549
I7
sVsay
p3550
I8
sVais
p3551
I2
sVsax
p3552
I12
sVaij
p3553
I3
sVaro
p3554
I15
sVami
p3555
I2
sVriz
p3556
I6
sVriy
p3557
I1
sVrit
p3558
I9
sVprr
p3559
I1
sVvoh
p3560
I4
sVris
p3561
I1
sVavi
p3562
I1
sVfkh
p3563
I1
sVpar
p3564
I51
sVpas
p3565
I17
sVpat
p3566
I41
sVpau
p3567
I2
sVdhi
p3568
I9
sVpaw
p3569
I4
sVraz
p3570
I7
sVdhe
p3571
I2
sVdha
p3572
I11
sVsav
p3573
I1
sVqad
p3574
I1
sVpac
p3575
I2
sVpad
p3576
I3
sVqam
p3577
I1
sVdhu
p3578
I2
sVpal
p3579
I17
sVpan
p3580
I27
sVnik
p3581
I2
sVnih
p3582
I7
sVsye
p3583
I10
sVkis
p3584
I3
sVkir
p3585
I3
sVpha
p3586
I2
sVnig
p3587
I6
sVnid
p3588
I2
sVniz
p3589
I2
sVnir
p3590
I2
sVnis
p3591
I3
sVniq
p3592
I1
sVnit
p3593
I5
sVthe
p3594
I2
sVtha
p3595
I21
sVnai
p3596
I8
sVyed
p3597
I2
sVhai
p3598
I6
sVham
p3599
I2
sVhan
p3600
I5
sVhaa
p3601
I2
sVhab
p3602
I3
sVela
p3603
I1
sVhaf
p3604
I1
sVskm
p3605
I1
sVhaq
p3606
I4
sVhar
p3607
I2
sVhas
p3608
I21
sVadh
p3609
I1
sVadi
p3610
I5
sVbin
p3611
I1
sVbil
p3612
I1
sVvii
p3613
I1
sVamn
p3614
I1
sVama
p3615
I3
sVmor
p3616
I2
sVame
p3617
I2
sVmou
p3618
I4
sVmot
p3619
I1
sVmoi
p3620
I1
sVmoh
p3621
I23
sVmon
p3622
I5
sVmom
p3623
I2
sVamr
p3624
I1
sVbis
p3625
I9
sVmod
p3626
I3
sVirf
p3627
I12
sVjyo
p3628
I6
sVsen
p3629
I3
sVsud
p3630
I2
sVper
p3631
I3
sVume
p3632
I1
sVpee
p3633
I2
sVruk
p3634
I1
sVrub
p3635
I2
sVruc
p3636
I7
sVhsh
p3637
I2
sVtya
p3638
I12
sVrur
p3639
I2
sVsri
p3640
I51
sVidr
p3641
I1
sVzub
p3642
I5
sVchh
p3643
I3
sVkri
p3644
I2
sVyat
p3645
I2
sVbhu
p3646
I8
sVaha
p3647
I4
sVsof
p3648
I1
sVnsa
p3649
I1
sVsom
p3650
I1
sVsol
p3651
I4
sVsoo
p3652
I3
sVahm
p3653
I55
sVsou
p3654
I1
sVahu
p3655
I3
sVvai
p3656
I6
sVsad
p3657
I3
sVgir
p3658
I3
sVwai
p3659
I2
sVwah
p3660
I2
sVloh
p3661
I10
sVwad
p3662
I1
sVmkk
p3663
I2
sVvag
p3664
I1
sVhee
p3665
I3
sVlov
p3666
I2
sVvar
p3667
I9
sVvas
p3668
I5
sVwas
p3669
I3
sVwar
p3670
I2
sVvat
p3671
I2
sVbur
p3672
I2
sVjuh
p3673
I4
sVjun
p3674
I1
sVbut
p3675
I4
sVzin
p3676
I2
sVsdf
p3677
I1
sVjuv
p3678
I2
sVbud
p3679
I3
sVazh
p3680
I2
sVazm
p3681
I2
sVaza
p3682
I2
sViqb
p3683
I6
sVuik
p3684
I1
sVkhu
p3685
I5
sVpiy
p3686
I2
sVnrh
p3687
I1
sVwaj
p3688
I3
sVind
p3689
I1
sVkha
p3690
I301
sVina
p3691
I3
sVnab
p3692
I2
sVnaa
p3693
I6
sVnaf
p3694
I1
sVnag
p3695
I11
sVnad
p3696
I4
sVyog
p3697
I3
sVnah
p3698
I2
sVtiw
p3699
I38
sVnan
p3700
I1
sVnam
p3701
I1
sVtil
p3702
I2
sVnas
p3703
I6
sVnaq
p3704
I1
sVnav
p3705
I1
sVnaw
p3706
I1
sVnat
p3707
I1
sVnau
p3708
I3
sVnaz
p3709
I7
sVgro
p3710
I5
sVnay
p3711
I4
sVtia
p3712
I2
sVuba
p3713
I2
sVcas
p3714
I1
sVagn
p3715
I3
sVagg
p3716
I19
sVsve
p3717
I1
sVaga
p3718
I45
sVlod
p3719
I2
sVagr
p3720
I21
stp3721
Rp3722
sg48
I1153
sg49
F5141.5
sbs(g9
g50
tp3723
g0
(g17
g2
Ntp3724
Rp3725
(dp3726
g21
F0.5
sg22
I3075
sg23
g24
((dp3727
g27
I123
sg56
I93
sg28
I157
sg29
I2
sg30
I215
sg31
I150
sg3053
I5
sg32
I4
sg33
I46
sg34
I291
sg35
I164
sg36
I287
sg37
I48
sg26
I10
sg38
I110
sg39
I468
sg40
I464
sg41
I166
sg42
I22
sg43
I86
sg57
I38
sg44
I103
sg45
I15
sg3055
I8
stp3728
Rp3729
sg48
I26
sg49
F3088.0
sbs(g12
S'name_last_two'
p3730
tp3731
g0
(g17
g2
Ntp3732
Rp3733
(dp3734
g21
F0.5
sg22
I1494
sg23
g24
((dp3735
Vne
p3736
I1
sVga
p3737
I2
sVgh
p3738
I5
sVle
p3739
I1
sVla
p3740
I23
sVlk
p3741
I2
sVli
p3742
I8
sVth
p3743
I3
sVti
p3744
I6
sVta
p3745
I14
sVir
p3746
I5
sVya
p3747
I3
sVht
p3748
I2
sVit
p3749
I3
sVhi
p3750
I11
sVha
p3751
I12
sVhe
p3752
I1
sVma
p3753
I47
sVut
p3754
I6
sVda
p3755
I4
sVmi
p3756
I3
sNI916
sVur
p3757
I16
sVul
p3758
I2
sVua
p3759
I1
sVil
p3760
I2
sVva
p3761
I7
sVen
p3762
I2
sVai
p3763
I3
sVvi
p3764
I4
sVak
p3765
I4
sVaj
p3766
I5
sVam
p3767
I3
sVal
p3768
I58
sVan
p3769
I19
sVii
p3770
I2
sVap
p3771
I4
sVar
p3772
I21
sVey
p3773
I6
sVat
p3774
I2
sVin
p3775
I7
sVia
p3776
I13
sVet
p3777
I14
sVev
p3778
I3
sVep
p3779
I14
sVer
p3780
I12
sVni
p3781
I13
sVnk
p3782
I2
sVna
p3783
I22
sVry
p3784
I2
sVre
p3785
I2
sVra
p3786
I40
sVnt
p3787
I1
sVri
p3788
I8
sVwa
p3789
I7
sVru
p3790
I1
sVbi
p3791
I2
sVbu
p3792
I2
sVhu
p3793
I10
sVja
p3794
I24
sVoo
p3795
I1
sVon
p3796
I7
sVka
p3797
I8
sVok
p3798
I1
sVoj
p3799
I1
sVoi
p3800
I3
sVkl
p3801
I2
sVsh
p3802
I11
sVsa
p3803
I2
sVot
p3804
I3
sVor
p3805
I15
sVse
p3806
I2
stp3807
Rp3808
sg48
I202
sg49
F1595.0
sbs(g10
g60
tp3809
g0
(g17
g2
Ntp3810
Rp3811
(dp3812
g21
F0.5
sg22
I4565
sg23
g24
((dp3813
Vkaty
p3814
I4
sVayus
p3815
I3
sVjajo
p3816
I1
sVkath
p3817
I2
sVsnir
p3818
I1
sVsuni
p3819
I2
sVzina
p3820
I2
sVayub
p3821
I1
sVkata
p3822
I2
sVabid
p3823
I1
sVsune
p3824
I3
sVqure
p3825
I7
sVkumu
p3826
I2
sVarin
p3827
I2
sVqura
p3828
I3
sVrizw
p3829
I3
sVrizv
p3830
I3
sVswam
p3831
I1
sVnusr
p3832
I1
sVrajn
p3833
I1
sVarif
p3834
I1
sVseng
p3835
I1
sVswat
p3836
I1
sVkuma
p3837
I182
sVswar
p3838
I2
sVkwee
p3839
I2
sVsing
p3840
I224
sVhuma
p3841
I4
sVahma
p3842
I25
sVvash
p3843
I2
sVvasi
p3844
I3
sVahme
p3845
I29
sVrish
p3846
I1
sVzame
p3847
I1
sVsoni
p3848
I20
sVhema
p3849
I2
sVmoun
p3850
I2
sVmoul
p3851
I1
sVmous
p3852
I1
sVunna
p3853
I1
sVmaur
p3854
I6
sVchan
p3855
I10
sVsony
p3856
I2
sVfala
p3857
I1
sVverm
p3858
I57
sVniti
p3859
I5
sVzama
p3860
I1
sVhuse
p3861
I1
sVsunj
p3862
I1
sVmaha
p3863
I8
sVmahe
p3864
I4
sVsang
p3865
I5
sVsand
p3866
I3
sVnegi
p3867
I5
sVfaee
p3868
I3
sVsana
p3869
I8
sVanan
p3870
I9
sVsunn
p3871
I11
sVsanj
p3872
I4
sVmaht
p3873
I1
sVmahu
p3874
I1
sVbill
p3875
I1
sVnaiy
p3876
I1
sVhaar
p3877
I2
sVmila
p3878
I1
sVpash
p3879
I15
sVnair
p3880
I2
sVniga
p3881
I6
sVnain
p3882
I1
sVpasr
p3883
I2
sVnaik
p3884
I2
sVnaid
p3885
I2
sVratn
p3886
I2
sVsabu
p3887
I3
sVtiwa
p3888
I38
sVrath
p3889
I14
sVasim
p3890
I2
sVgunj
p3891
I3
sVkris
p3892
I2
sVasif
p3893
I12
sVrukh
p3894
I1
sVnand
p3895
I1
sVtewa
p3896
I3
sVfatm
p3897
I3
sVmitt
p3898
I16
sVsapr
p3899
I5
sVdahi
p3900
I3
sVhasm
p3901
I2
sVkama
p3902
I1
sVlodh
p3903
I2
sVhash
p3904
I6
sVhasi
p3905
I3
sVmull
p3906
I2
sVkadi
p3907
I1
sVdahe
p3908
I1
sVhasa
p3909
I3
sVkamr
p3910
I2
sVaali
p3911
I2
sVpate
p3912
I15
sVjati
p3913
I1
sVpati
p3914
I2
sVpath
p3915
I24
sVaala
p3916
I1
sVhass
p3917
I6
sVagga
p3918
I19
sVbhus
p3919
I2
sVhuda
p3920
I1
sVbhut
p3921
I6
sValta
p3922
I3
sVrazi
p3923
I5
sVsawh
p3924
I2
sVjama
p3925
I4
sVraza
p3926
I2
sVrekh
p3927
I1
sVsira
p3928
I2
sVdhuk
p3929
I2
sVsiro
p3930
I1
sVgosa
p3931
I1
sVrash
p3932
I2
sVunis
p3933
I2
sVfaki
p3934
I1
sVvipi
p3935
I1
sVasth
p3936
I8
sVkhai
p3937
I1
sVrafi
p3938
I2
sVkhal
p3939
I1
sVkham
p3940
I1
sVkhab
p3941
I2
sVkhaa
p3942
I2
sVrast
p3943
I7
sVkhad
p3944
I4
sVperw
p3945
I2
sVperv
p3946
I1
sVkhar
p3947
I5
sVkhas
p3948
I2
sVswet
p3949
I2
sVrurk
p3950
I2
sVmore
p3951
I2
sVmush
p3952
I2
sVdoor
p3953
I2
sVmusl
p3954
I1
sVwars
p3955
I2
sVuddi
p3956
I2
sVakri
p3957
I3
sVchit
p3958
I1
sVmirz
p3959
I7
sVakra
p3960
I1
sVhola
p3961
I1
sVmuza
p3962
I3
sVmeen
p3963
I12
sVamri
p3964
I1
sValin
p3965
I2
sVmalv
p3966
I4
sVsoum
p3967
I1
sVzami
p3968
I1
sVubai
p3969
I2
sVsabh
p3970
I2
sVkukr
p3971
I1
sVsabn
p3972
I1
sVmalh
p3973
I6
sVmali
p3974
I5
sVafta
p3975
I1
sVsaba
p3976
I5
sVtahs
p3977
I1
sVsude
p3978
I2
sVasra
p3979
I2
sVkosh
p3980
I2
sVpawa
p3981
I4
sVmehe
p3982
I3
sVjeha
p3983
I1
sVmeha
p3984
I1
sVsika
p3985
I2
sVnaga
p3986
I5
sVmeht
p3987
I8
sVmehr
p3988
I11
sVsikk
p3989
I1
sVjuva
p3990
I1
sVjuve
p3991
I1
sVabba
p3992
I3
sVnaru
p3993
I2
sVnahe
p3994
I2
sVbega
p3995
I1
sVthak
p3996
I18
sVasma
p3997
I2
sVraye
p3998
I2
sVgurj
p3999
I1
sViliy
p4000
I4
sVasmi
p4001
I1
sVbegu
p4002
I10
sVnara
p4003
I5
sVshar
p4004
I177
sVsonk
p4005
I3
sVabdu
p4006
I2
sVadiw
p4007
I1
sVsvet
p4008
I1
sVfaro
p4009
I5
sVyede
p4010
I2
sVkari
p4011
I2
sVfarh
p4012
I4
sVahmm
p4013
I1
sVadie
p4014
I1
sVdivy
p4015
I2
sVtoma
p4016
I8
sVgeet
p4017
I1
sVgrov
p4018
I5
sVloha
p4019
I6
sVgoal
p4020
I1
sVqadr
p4021
I1
sVgosw
p4022
I5
sVbini
p4023
I1
sVamik
p4024
I1
sVvikr
p4025
I4
sVriya
p4026
I1
sVdevi
p4027
I1
sVjais
p4028
I9
sVsonr
p4029
I1
sVaast
p4030
I1
sVansa
p4031
I37
sVtala
p4032
I1
sVjain
p4033
I59
sVvika
p4034
I4
sVtali
p4035
I2
sVamir
p4036
I1
sVvaru
p4037
I1
sVshay
p4038
I1
sVpanw
p4039
I1
sVvars
p4040
I4
sVsood
p4041
I3
sVwadh
p4042
I1
sVbisw
p4043
I2
sVbhag
p4044
I3
sVpanc
p4045
I1
sVbrij
p4046
I1
sVzman
p4047
I1
sVpand
p4048
I23
sVvarm
p4049
I4
sVvohr
p4050
I4
sVjabe
p4051
I2
sVpann
p4052
I2
sVpras
p4053
I17
sVprat
p4054
I2
sVprav
p4055
I2
sVapex
p4056
I1
sVaaye
p4057
I2
sVjodo
p4058
I1
sVlate
p4059
I9
sVinam
p4060
I3
sVavip
p4061
I1
sVrabi
p4062
I2
sVprak
p4063
I4
sVmain
p4064
I1
sVlati
p4065
I1
sVshag
p4066
I5
sVbanu
p4067
I5
sVbans
p4068
I9
sVkisl
p4069
I2
sVnada
p4070
I1
sVyada
p4071
I58
sVgudd
p4072
I2
sVkish
p4073
I1
sVnade
p4074
I3
sVmomi
p4075
I2
sVlaya
p4076
I1
sVbanc
p4077
I2
sVshak
p4078
I4
sVritu
p4079
I3
sVbano
p4080
I2
sVdiks
p4081
I2
sVbani
p4082
I2
sVzain
p4083
I1
sVpuro
p4084
I2
sVzaid
p4085
I7
sVirfa
p4086
I12
sNI190
sVnamr
p4087
I1
sVranv
p4088
I2
sVjuhi
p4089
I4
sVmodi
p4090
I3
sVsham
p4091
I2
sVsidd
p4092
I23
sVluck
p4093
I2
sVkann
p4094
I2
sVkano
p4095
I5
sVgaut
p4096
I16
sVnave
p4097
I1
sVkani
p4098
I2
sVtyag
p4099
I12
sVkanc
p4100
I1
sVadit
p4101
I3
sVkanu
p4102
I2
sVhars
p4103
I2
sVkans
p4104
I1
sVjawe
p4105
I3
sVmatt
p4106
I2
sVabha
p4107
I2
sVstut
p4108
I1
sVwase
p4109
I1
sVabhi
p4110
I5
sVkapi
p4111
I3
sVruch
p4112
I7
sVbafn
p4113
I1
sVkenw
p4114
I1
sVjala
p4115
I3
sVanki
p4116
I3
sVuike
p4117
I1
sVdive
p4118
I1
sVmath
p4119
I4
sVsanc
p4120
I1
sVraik
p4121
I1
sVshus
p4122
I1
sVlove
p4123
I2
sVkaus
p4124
I12
sVkaur
p4125
I1
sVhami
p4126
I2
sVajaz
p4127
I2
sVajay
p4128
I2
sVshub
p4129
I1
sVrahu
p4130
I15
sVsano
p4131
I3
sVhand
p4132
I1
sVchad
p4133
I1
sVshuk
p4134
I23
sVbash
p4135
I5
sVpund
p4136
I5
sVsaha
p4137
I4
sVpunn
p4138
I1
sVsahn
p4139
I2
sVgaff
p4140
I1
sVsahi
p4141
I4
sVsahu
p4142
I18
sVimra
p4143
I11
sVimro
p4144
I1
sVbhad
p4145
I1
sVrang
p4146
I2
sVrana
p4147
I9
sVlohi
p4148
I4
sVmish
p4149
I23
sVbham
p4150
I2
sVbhal
p4151
I1
sVbhan
p4152
I3
sVrani
p4153
I11
sVsach
p4154
I1
sVranj
p4155
I5
sVwasi
p4156
I2
sVbhat
p4157
I23
sVbhaw
p4158
I2
sVbhav
p4159
I3
sVbhas
p4160
I3
sVbhar
p4161
I27
sVmiss
p4162
I6
sVmisr
p4163
I2
sVagra
p4164
I21
sVisla
p4165
I2
sVbarw
p4166
I1
sVtate
p4167
I2
sVarch
p4168
I3
sValha
p4169
I1
sVfais
p4170
I5
sVkewa
p4171
I1
sVjoha
p4172
I1
sVanur
p4173
I2
sVanus
p4174
I4
sVpare
p4175
I3
sVgokh
p4176
I1
sVpara
p4177
I7
sVbajp
p4178
I1
sVdigv
p4179
I1
sValam
p4180
I9
sVpari
p4181
I6
sVparw
p4182
I3
sVparv
p4183
I26
sVrawa
p4184
I8
sVsayy
p4185
I5
sVhiba
p4186
I1
sVbutt
p4187
I4
sVanuj
p4188
I1
sVdwiv
p4189
I7
sVakas
p4190
I2
sVjang
p4191
I6
sVnaqv
p4192
I1
sVsaql
p4193
I1
sVkagw
p4194
I1
sVpkul
p4195
I2
sVsaye
p4196
I3
sVwali
p4197
I4
sVarun
p4198
I2
sVdand
p4199
I1
sVheen
p4200
I3
sVgoya
p4201
I15
sVadhr
p4202
I1
sVvija
p4203
I1
sVmino
p4204
I2
sVsult
p4205
I17
sVseth
p4206
I5
sVneer
p4207
I1
sVneel
p4208
I1
sVpard
p4209
I5
sVrenu
p4210
I3
sVkard
p4211
I1
sVkare
p4212
I1
sVghou
p4213
I1
sVtaba
p4214
I8
sVnazn
p4215
I1
sVnazi
p4216
I1
sVkaro
p4217
I1
sVkarm
p4218
I2
sVkush
p4219
I9
sVamna
p4220
I1
sVtaka
p4221
I2
sVkazm
p4222
I1
sVjaha
p4223
I7
sVmemo
p4224
I1
sVawas
p4225
I5
sVsiso
p4226
I2
sVabub
p4227
I2
sViffa
p4228
I2
sVkoko
p4229
I2
sVaman
p4230
I3
sVaror
p4231
I15
sVsurv
p4232
I3
sVkuju
p4233
I2
sVbetg
p4234
I1
sVdube
p4235
I9
sVajee
p4236
I2
sVsury
p4237
I3
sVraaj
p4238
I1
sVniha
p4239
I7
sVindr
p4240
I1
sVnsar
p4241
I1
sVsale
p4242
I6
sVpart
p4243
I1
sVbada
p4244
I1
sVgoel
p4245
I7
sVreed
p4246
I2
sVsoha
p4247
I3
sVsalu
p4248
I1
sVahuj
p4249
I3
sVbais
p4250
I1
sVgold
p4251
I2
sVprin
p4252
I3
sVsaga
p4253
I1
sVraje
p4254
I2
sVpopl
p4255
I2
sVpriy
p4256
I17
sVshoa
p4257
I1
sVelah
p4258
I1
sVbaig
p4259
I1
sVrajp
p4260
I13
sVrajs
p4261
I1
sVprit
p4262
I1
sVshon
p4263
I1
sVasga
p4264
I1
sVgula
p4265
I2
sVzahi
p4266
I2
sVarpi
p4267
I2
sVkada
p4268
I1
sVguln
p4269
I2
sVkesh
p4270
I6
sVgulr
p4271
I3
sVreen
p4272
I2
sVayes
p4273
I4
sVlubn
p4274
I3
sVafza
p4275
I1
sVgour
p4276
I3
sVakan
p4277
I1
sVisha
p4278
I4
sVdhin
p4279
I6
sVdhim
p4280
I3
sVagni
p4281
I3
sVmuna
p4282
I2
sVkakk
p4283
I3
sVtaya
p4284
I3
sVafsa
p4285
I2
sVraja
p4286
I6
sVnawa
p4287
I1
sVmunt
p4288
I2
sVniza
p4289
I2
sVmuns
p4290
I1
sVsaur
p4291
I1
sVnish
p4292
I3
sVzeen
p4293
I4
sVnaus
p4294
I2
sVnaut
p4295
I1
sVgaur
p4296
I14
sVgaum
p4297
I2
sVtole
p4298
I2
sVanja
p4299
I2
sVsaud
p4300
I2
sVakal
p4301
I1
sVarya
p4302
I9
sVgusa
p4303
I2
sVasna
p4304
I2
sVwaik
p4305
I2
sVbaru
p4306
I1
sVgous
p4307
I2
sVkamb
p4308
I1
sVyusu
p4309
I8
sVsiva
p4310
I2
sVazha
p4311
I2
sVvali
p4312
I2
sVfaiz
p4313
I7
sVbara
p4314
I1
sVpadw
p4315
I2
sVfaim
p4316
I1
sVpaul
p4317
I2
sVisht
p4318
I1
sVsaif
p4319
I2
sVsehr
p4320
I3
sVjabb
p4321
I1
sVyase
p4322
I3
sVsain
p4323
I21
sVyasi
p4324
I3
sVyash
p4325
I1
sVyasm
p4326
I1
sVradh
p4327
I1
sVsehe
p4328
I1
sVriti
p4329
I3
sVrith
p4330
I1
sVatul
p4331
I1
sVrite
p4332
I2
sVsaiy
p4333
I2
sVatre
p4334
I1
sVamen
p4335
I2
sVibra
p4336
I2
sVsola
p4337
I4
sVdang
p4338
I1
sVmago
p4339
I4
sVazam
p4340
I2
sVmong
p4341
I2
sVmans
p4342
I3
sVmant
p4343
I1
sVmona
p4344
I1
sVmoni
p4345
I2
sVanoo
p4346
I1
sVmand
p4347
I3
sVmang
p4348
I1
sVrame
p4349
I2
sVbrah
p4350
I3
sVgiri
p4351
I2
sVrama
p4352
I4
sVmann
p4353
I3
sVmano
p4354
I1
sVvaid
p4355
I3
sVsinh
p4356
I13
sVjaya
p4357
I2
sVbela
p4358
I1
sVakba
p4359
I2
sVraha
p4360
I3
sVprem
p4361
I2
sVhast
p4362
I1
sVravi
p4363
I4
sVanth
p4364
I2
sVvais
p4365
I3
sVpadm
p4366
I1
sVjave
p4367
I4
sVsari
p4368
I2
sVsaro
p4369
I1
sVdeep
p4370
I9
sVmaro
p4371
I3
sVaanc
p4372
I1
sVmari
p4373
I3
sVsare
p4374
I1
sVmarw
p4375
I1
sVmarr
p4376
I1
sVgaza
p4377
I2
sVship
p4378
I2
sVaija
p4379
I3
sVsarw
p4380
I2
sVchug
p4381
I2
sVdhau
p4382
I2
sVrajy
p4383
I1
sVarvi
p4384
I1
sVdixi
p4385
I4
sVnaye
p4386
I1
sVneha
p4387
I11
sVrubi
p4388
I1
sVnaya
p4389
I2
sVmuja
p4390
I5
sVdave
p4391
I1
sVchur
p4392
I2
sVrahm
p4393
I6
sVkoth
p4394
I1
sVdhee
p4395
I2
sVdilb
p4396
I2
sVruby
p4397
I1
sVdavi
p4398
I2
sVhaqu
p4399
I4
sVdepe
p4400
I1
sVsuha
p4401
I2
sVpraj
p4402
I5
sVcasa
p4403
I1
sVvagh
p4404
I1
sVaham
p4405
I4
sVtand
p4406
I6
sVkavi
p4407
I3
sVwill
p4408
I2
sVagar
p4409
I45
sVkara
p4410
I3
sVtanz
p4411
I1
sVremo
p4412
I3
sVtanu
p4413
I2
sVpach
p4414
I2
sVviia
p4415
I1
sVkwat
p4416
I2
sVchat
p4417
I6
sVqams
p4418
I1
sVchau
p4419
I52
sVmotl
p4420
I1
sVkohl
p4421
I1
sVziau
p4422
I2
sVyati
p4423
I1
sVsyed
p4424
I10
sVseem
p4425
I2
sVjyot
p4426
I6
sVyate
p4427
I1
sVbagr
p4428
I1
sVshas
p4429
I1
sVsami
p4430
I3
sVshaq
p4431
I1
sVmakk
p4432
I1
sVshaw
p4433
I1
sVbhom
p4434
I1
sVshau
p4435
I2
sVshaz
p4436
I2
sVhiwa
p4437
I1
sVsama
p4438
I5
sVniki
p4439
I2
sVsame
p4440
I13
sVshab
p4441
I5
sVmanc
p4442
I2
sVshaf
p4443
I1
sVbagg
p4444
I1
sVbhos
p4445
I1
sVsamr
p4446
I1
sVshah
p4447
I9
sVshai
p4448
I87
sVshan
p4449
I4
sVthee
p4450
I2
sVshal
p4451
I1
sVomar
p4452
I2
sVbalo
p4453
I1
sVsada
p4454
I1
sVhani
p4455
I2
sVnabi
p4456
I2
sVnidh
p4457
I2
sVsukh
p4458
I1
sVsadh
p4459
I1
sVsadi
p4460
I1
sVzahe
p4461
I3
sVhggg
p4462
I1
sVtopp
p4463
I1
sVjiya
p4464
I5
sVnaag
p4465
I1
sVanku
p4466
I2
sVmani
p4467
I10
sVhans
p4468
I2
sVhshe
p4469
I2
sVupad
p4470
I10
sVtask
p4471
I1
sVtasl
p4472
I2
sVtasn
p4473
I1
sVaish
p4474
I2
sVarsh
p4475
I1
sVseti
p4476
I1
sVdris
p4477
I2
sVphan
p4478
I2
sVojha
p4479
I1
sVrome
p4480
I1
sVhowd
p4481
I1
sValka
p4482
I2
sVpree
p4483
I2
sVwahi
p4484
I2
sVkale
p4485
I4
sVazmi
p4486
I2
sVkali
p4487
I2
sVsufi
p4488
I2
sVkalr
p4489
I2
sVafre
p4490
I3
sVkaly
p4491
I1
sVsimi
p4492
I1
sVafro
p4493
I4
sVanit
p4494
I1
sVlakh
p4495
I3
sVdhak
p4496
I4
sVkasa
p4497
I2
sVlawa
p4498
I1
sVjosh
p4499
I7
sVdhan
p4500
I1
sVdham
p4501
I1
sVdhar
p4502
I2
sVnath
p4503
I1
sVdhaw
p4504
I1
sVreha
p4505
I3
sVsavi
p4506
I1
sVnirm
p4507
I2
sVrehm
p4508
I9
sVlade
p4509
I1
sVkhum
p4510
I1
sVgovi
p4511
I1
sVfate
p4512
I1
sVjaka
p4513
I1
sVfati
p4514
I20
sVfath
p4515
I5
sVshwe
p4516
I9
sVkass
p4517
I1
sVdutt
p4518
I6
sVarab
p4519
I1
sVkash
p4520
I15
sVsumi
p4521
I2
sVdarb
p4522
I1
sVkhur
p4523
I2
sVkhus
p4524
I2
sVsuma
p4525
I4
sVsofi
p4526
I1
sVatha
p4527
I3
sVkazi
p4528
I6
sViqba
p4529
I6
sVgade
p4530
I2
sVkuls
p4531
I4
sVsemb
p4532
I2
sVchow
p4533
I4
sVgady
p4534
I1
sVbaja
p4535
I4
sVsuth
p4536
I2
sVvats
p4537
I2
sVshed
p4538
I1
sVmurk
p4539
I1
sVhaid
p4540
I6
sVdoll
p4541
I3
sVsoma
p4542
I1
sVrraj
p4543
I1
sVhuss
p4544
I17
sVbors
p4545
I2
sVshek
p4546
I1
sVshaa
p4547
I3
sVmohd
p4548
I5
sVresh
p4549
I3
sVsher
p4550
I2
sVmoha
p4551
I9
sVsurb
p4552
I2
sVawad
p4553
I1
sVnaaz
p4554
I5
sVakht
p4555
I3
sVtave
p4556
I2
sVrohi
p4557
I5
sVmedh
p4558
I1
sVumes
p4559
I1
sVbang
p4560
I1
sVnoor
p4561
I11
sVgupt
p4562
I139
sVgopa
p4563
I2
sVjune
p4564
I1
sVsriv
p4565
I49
sVburn
p4566
I1
sVfara
p4567
I1
sVburh
p4568
I1
sVsaxe
p4569
I12
sVnafe
p4570
I1
sVanwa
p4571
I7
sVhabi
p4572
I3
sVpeer
p4573
I2
sVkhan
p4574
I269
sVraun
p4575
I2
sVmudr
p4576
I2
sVashi
p4577
I2
sVshxy
p4578
I1
sVidre
p4579
I1
sVchop
p4580
I4
sVrafe
p4581
I1
sVjeel
p4582
I4
sVchou
p4583
I24
sVbish
p4584
I7
sVjhot
p4585
I2
sVashu
p4586
I1
sVtila
p4587
I2
sVwaji
p4588
I3
sVtome
p4589
I1
sVashr
p4590
I4
sVzaki
p4591
I1
sVayya
p4592
I2
sVkala
p4593
I3
sVshre
p4594
I9
sVsara
p4595
I3
sVmuku
p4596
I1
sVmumt
p4597
I2
sVghan
p4598
I1
sVgarg
p4599
I20
sVgare
p4600
I2
sVdiwa
p4601
I1
sVshri
p4602
I16
sVmerh
p4603
I1
sVshru
p4604
I2
sVshee
p4605
I5
sVskma
p4606
I1
sVjenn
p4607
I1
sVgirr
p4608
I1
sVkapo
p4609
I15
sVvish
p4610
I11
sVsubh
p4611
I1
sVjind
p4612
I6
sVaarz
p4613
I1
sVaree
p4614
I1
sVjina
p4615
I1
sVsona
p4616
I3
sVtamb
p4617
I1
sVjanw
p4618
I1
sVaart
p4619
I2
sVaaru
p4620
I2
sVnova
p4621
I2
sVappo
p4622
I1
sVaari
p4623
I1
sVsaki
p4624
I2
sVthap
p4625
I3
sVbudh
p4626
I3
sVreet
p4627
I1
sVjagl
p4628
I1
sVpiyu
p4629
I2
sVfahe
p4630
I2
sVmick
p4631
I1
sVshsh
p4632
I1
sVshei
p4633
I11
sVdipe
p4634
I1
sVatod
p4635
I1
sVpali
p4636
I4
sVmade
p4637
I1
sVpulk
p4638
I1
sVmada
p4639
I3
sVragh
p4640
I5
sVsalo
p4641
I1
sVmadh
p4642
I1
sVkaha
p4643
I2
sVkhat
p4644
I14
sVatta
p4645
I1
sVzara
p4646
I2
sVneya
p4647
I1
sVzees
p4648
I1
sVpall
p4649
I1
sVjham
p4650
I2
sVshik
p4651
I3
sVsaea
p4652
I1
sVsaee
p4653
I1
sVchaj
p4654
I2
sVshif
p4655
I2
sVgoni
p4656
I1
sVshid
p4657
I1
sVshie
p4658
I2
sVchar
p4659
I1
sVdeek
p4660
I1
sVanju
p4661
I3
sVhusa
p4662
I4
sVshir
p4663
I3
sVnagp
p4664
I2
sVtriv
p4665
I4
sVshiv
p4666
I5
sVtrip
p4667
I7
sVdils
p4668
I2
sVchha
p4669
I3
sVyoge
p4670
I3
sVkaba
p4671
I2
sVnrha
p4672
I1
sVhafe
p4673
I1
sVtara
p4674
I3
sVkirt
p4675
I1
sVmohi
p4676
I9
sVleen
p4677
I2
sVkira
p4678
I2
sVkori
p4679
I2
sVbagw
p4680
I2
sVteck
p4681
I1
sVfkha
p4682
I1
sVeqba
p4683
I1
sVmoiz
p4684
I1
sVansh
p4685
I3
sVpooj
p4686
I2
sVprra
p4687
I1
sVpoon
p4688
I3
sVusma
p4689
I2
sVnasr
p4690
I3
sVaaka
p4691
I1
sVniqh
p4692
I1
sVmaso
p4693
I1
sVvick
p4694
I3
sVfaza
p4695
I1
sVmall
p4696
I1
sVmasi
p4697
I3
sVrewa
p4698
I1
sVasla
p4699
I5
sVmasr
p4700
I4
sVshil
p4701
I2
sVnase
p4702
I3
sVpush
p4703
I1
sVzuba
p4704
I5
sVnayy
p4705
I1
stp4706
Rp4707
sg48
I2515
sg49
F5822.5
sbs(g8
g3730
tp4708
g0
(g17
g2
Ntp4709
Rp4710
(dp4711
g21
F0.5
sg22
I6286
sg23
g24
((dp4712
Vgu
p4713
I2
sVgp
p4714
I1
sVge
p4715
I19
sVxi
p4716
I1
sVga
p4717
I6
sVgi
p4718
I15
sVgh
p4719
I3
sVle
p4720
I6
sVty
p4721
I19
sVtt
p4722
I2
sVtu
p4723
I5
sVli
p4724
I54
sVlu
p4725
I7
sVav
p4726
I11
sVls
p4727
I1
sVth
p4728
I129
sVti
p4729
I41
sVly
p4730
I7
sVia
p4731
I5
sVta
p4732
I27
sVdo
p4733
I2
sVdh
p4734
I4
sVdi
p4735
I27
sVya
p4736
I131
sVde
p4737
I4
sVda
p4738
I26
sVdy
p4739
I13
sVdu
p4740
I12
sVnt
p4741
I8
sNI2641
sVel
p4742
I30
sVen
p4743
I44
sVek
p4744
I1
sVej
p4745
I2
sVee
p4746
I13
sVed
p4747
I16
sVef
p4748
I3
sVza
p4749
I2
sVeb
p4750
I4
sVey
p4751
I5
sVet
p4752
I4
sVew
p4753
I11
sVev
p4754
I16
sVeq
p4755
I2
sVep
p4756
I23
sVes
p4757
I1
sVer
p4758
I38
sVru
p4759
I14
sVrs
p4760
I2
sVry
p4761
I7
sVrd
p4762
I2
sVre
p4763
I7
sVun
p4764
I3
sVra
p4765
I56
sVri
p4766
I83
sVba
p4767
I12
sVvi
p4768
I61
sVju
p4769
I21
sVbu
p4770
I16
sVji
p4771
I16
sVja
p4772
I20
sVon
p4773
I22
sVol
p4774
I3
sVok
p4775
I2
sVmy
p4776
I10
sVla
p4777
I97
sVoy
p4778
I2
sVor
p4779
I1
sVop
p4780
I2
sVck
p4781
I6
sVch
p4782
I2
sVal
p4783
I38
sVce
p4784
I7
sVcv
p4785
I2
sVct
p4786
I2
sVpu
p4787
I19
sVby
p4788
I2
sVpa
p4789
I21
sVah
p4790
I13
sVph
p4791
I28
sVvk
p4792
I2
sVak
p4793
I5
sVaj
p4794
I70
sVhr
p4795
I2
sVhp
p4796
I2
sVhu
p4797
I24
sVhj
p4798
I2
sVhi
p4799
I117
sVhn
p4800
I1
sVha
p4801
I162
sVhe
p4802
I2
sVma
p4803
I27
sVmi
p4804
I63
sVvr
p4805
I2
sVur
p4806
I16
sVmu
p4807
I1
sVul
p4808
I1
sVmv
p4809
I2
sVue
p4810
I3
sVud
p4811
I2
sVuf
p4812
I3
sVua
p4813
I2
sVil
p4814
I10
sVva
p4815
I17
sVod
p4816
I11
sVad
p4817
I31
sVag
p4818
I3
sVaf
p4819
I2
sVai
p4820
I29
sVip
p4821
I1
sVis
p4822
I5
sVir
p4823
I4
sVam
p4824
I85
sVit
p4825
I6
sVao
p4826
I15
sVan
p4827
I389
sVap
p4828
I5
sVik
p4829
I17
sVhy
p4830
I33
sVim
p4831
I6
sVat
p4832
I5
sVin
p4833
I25
sVay
p4834
I9
sVic
p4835
I2
sVaz
p4836
I2
sVie
p4837
I3
sVas
p4838
I55
sVnh
p4839
I2
sVni
p4840
I157
sVnk
p4841
I1
sVna
p4842
I166
sVnd
p4843
I7
sVne
p4844
I5
sVng
p4845
I3
sVny
p4846
I9
sVkp
p4847
I2
sVar
p4848
I267
sVnu
p4849
I10
sVfa
p4850
I3
sVff
p4851
I1
sVky
p4852
I2
sVka
p4853
I56
sVke
p4854
I1
sVss
p4855
I3
sVki
p4856
I4
sVko
p4857
I3
sVsu
p4858
I3
sVst
p4859
I1
sVsi
p4860
I7
sVsh
p4861
I224
sVku
p4862
I1
sVsa
p4863
I2
sVsf
p4864
I2
sVse
p4865
I20
stp4866
Rp4867
sg48
I202
sg49
F6387.0
sbs(g9
g3730
tp4868
g0
(g17
g2
Ntp4869
Rp4870
(dp4871
g21
F0.5
sg22
I3075
sg23
g24
((dp4872
Vvi
p4873
I10
sVva
p4874
I2
sVal
p4875
I71
sVce
p4876
I2
sVne
p4877
I45
sVge
p4878
I14
sVad
p4879
I24
sVng
p4880
I1
sVgi
p4881
I2
sVgh
p4882
I1
sVpe
p4883
I2
sVle
p4884
I61
sVla
p4885
I38
sVll
p4886
I2
sVli
p4887
I19
sVai
p4888
I33
sVth
p4889
I3
sVti
p4890
I21
sVte
p4891
I25
sVak
p4892
I8
sVta
p4893
I17
sVir
p4894
I8
sVan
p4895
I63
sVdh
p4896
I1
sVdi
p4897
I18
sVya
p4898
I60
sVde
p4899
I118
sVye
p4900
I4
sVsy
p4901
I1
sVda
p4902
I17
sVay
p4903
I12
sVhi
p4904
I30
sVho
p4905
I2
sVha
p4906
I17
sVhe
p4907
I17
sVme
p4908
I3
sVma
p4909
I15
sVut
p4910
I3
sVmi
p4911
I9
sVas
p4912
I3
sNI1328
sVum
p4913
I3
sVul
p4914
I2
sVar
p4915
I262
sVat
p4916
I19
sVel
p4917
I4
sVkh
p4918
I31
sVve
p4919
I4
sVek
p4920
I1
sVee
p4921
I4
sVed
p4922
I2
sVis
p4923
I2
sVaj
p4924
I9
sVam
p4925
I15
sVza
p4926
I2
sVao
p4927
I7
sViv
p4928
I1
sVap
p4929
I9
sVik
p4930
I7
sVij
p4931
I1
sVil
p4932
I1
sVav
p4933
I46
sVia
p4934
I18
sVet
p4935
I4
sVev
p4936
I2
sVep
p4937
I2
sVer
p4938
I7
sVnh
p4939
I2
sVru
p4940
I3
sVnj
p4941
I3
sVnk
p4942
I1
sVna
p4943
I19
sVnd
p4944
I2
sVry
p4945
I15
sVid
p4946
I3
sVre
p4947
I98
sVra
p4948
I18
sVit
p4949
I6
sVnt
p4950
I21
sVri
p4951
I34
sVbe
p4952
I3
sVwa
p4953
I1
sVni
p4954
I72
sVfy
p4955
I2
sVbh
p4956
I2
sVbi
p4957
I1
sVje
p4958
I4
sVhu
p4959
I5
sVja
p4960
I2
sVka
p4961
I11
sVol
p4962
I2
sVin
p4963
I8
sVke
p4964
I15
sVki
p4965
I15
sVod
p4966
I25
sVkr
p4967
I1
sVsi
p4968
I2
sVsh
p4969
I50
sVor
p4970
I20
sVse
p4971
I14
stp4972
Rp4973
sg48
I202
sg49
F3176.0
sbs(g8
g1289
tp4974
g0
(g17
g2
Ntp4975
Rp4976
(dp4977
g21
F0.5
sg22
I6286
sg23
g24
((dp4978
Vpidi
p4979
I2
sVshen
p4980
I2
sVliar
p4981
I1
sVlini
p4982
I2
sVkala
p4983
I6
sVraja
p4984
I1
sVhacv
p4985
I2
sVkath
p4986
I2
sVdoon
p4987
I1
sVelan
p4988
I2
sVmila
p4989
I3
sVdish
p4990
I2
sVikon
p4991
I1
sVgani
p4992
I1
sVraju
p4993
I18
sVliah
p4994
I1
sVhadi
p4995
I1
sVlyan
p4996
I1
sVrika
p4997
I1
sVsena
p4998
I1
sVavar
p4999
I6
sVotra
p5000
I2
sVrasi
p5001
I1
sVnkar
p5002
I6
sVugan
p5003
I3
sVugam
p5004
I3
sVaffa
p5005
I2
sVswar
p5006
I2
sVdhya
p5007
I2
sVelin
p5008
I1
sVivya
p5009
I2
sVdhin
p5010
I2
sVtnam
p5011
I1
sVattu
p5012
I1
sVmaar
p5013
I1
sVkshi
p5014
I5
sVksha
p5015
I2
sVelvi
p5016
I2
sVmahi
p5017
I1
sVresh
p5018
I2
sVmmya
p5019
I1
sVekar
p5020
I6
sVyala
p5021
I4
sVjali
p5022
I3
sVinya
p5023
I2
sVanan
p5024
I22
sVidha
p5025
I1
sVanam
p5026
I2
sViran
p5027
I4
sVence
p5028
I5
sVhore
p5029
I1
sVjeti
p5030
I2
sVjada
p5031
I1
sVgues
p5032
I1
sVntha
p5033
I2
sVegde
p5034
I2
sVshmi
p5035
I21
sVajan
p5036
I17
sVvelu
p5037
I2
sVnthi
p5038
I8
sVpani
p5039
I1
sVanvi
p5040
I2
sVhick
p5041
I6
sVingh
p5042
I1
sVbsbu
p5043
I2
sVmity
p5044
I2
sVhish
p5045
I1
sVnand
p5046
I6
sVrkar
p5047
I2
sVisha
p5048
I2
sVheba
p5049
I2
sVayya
p5050
I1
sVjith
p5051
I4
sViraj
p5052
I2
sVvali
p5053
I1
sVneni
p5054
I3
sVpatt
p5055
I2
sVkami
p5056
I2
sVmula
p5057
I2
sVsini
p5058
I1
sVpati
p5059
I10
sVbose
p5060
I1
sVoshi
p5061
I1
sVmbar
p5062
I1
sVsina
p5063
I1
sVouli
p5064
I1
sVnuel
p5065
I2
sVanth
p5066
I24
sVpher
p5067
I1
sVramu
p5068
I1
sVlaja
p5069
I3
sVeesh
p5070
I11
sVudra
p5071
I1
sVshna
p5072
I22
sVmana
p5073
I2
sVasad
p5074
I5
sVomas
p5075
I2
sVatti
p5076
I2
sVmani
p5077
I15
sVhima
p5078
I4
sVrsan
p5079
I2
sVenah
p5080
I2
sVdhan
p5081
I11
sVhree
p5082
I9
sVanti
p5083
I8
sVotil
p5084
I1
sVasan
p5085
I6
sVovan
p5086
I2
sVveni
p5087
I2
sVreya
p5088
I1
sVavan
p5089
I6
sVando
p5090
I2
sVikal
p5091
I1
sVandi
p5092
I7
sVthri
p5093
I6
sVande
p5094
I1
sVaaji
p5095
I2
sVitha
p5096
I11
sVmari
p5097
I8
sVthra
p5098
I3
sVajvr
p5099
I2
sVtine
p5100
I2
sVnath
p5101
I24
sVandy
p5102
I2
sVmars
p5103
I2
sVkhar
p5104
I8
sVarth
p5105
I1
sVnkel
p5106
I1
sVarma
p5107
I1
sVisal
p5108
I2
sVholy
p5109
I2
sVdhev
p5110
I2
sVndhi
p5111
I1
sVpudi
p5112
I3
sVbabu
p5113
I13
sVeevi
p5114
I1
sVwari
p5115
I14
sVbaby
p5116
I2
sValya
p5117
I2
sVuraj
p5118
I6
sVsiya
p5119
I1
sVurai
p5120
I2
sVgava
p5121
I2
sVivee
p5122
I1
sVyath
p5123
I2
sVagam
p5124
I1
sVkavi
p5125
I1
sVthik
p5126
I2
sVagar
p5127
I4
sVkara
p5128
I1
sVroop
p5129
I1
sVopal
p5130
I6
sVmala
p5131
I5
sVohan
p5132
I2
sVetti
p5133
I6
sVifer
p5134
I1
sVudar
p5135
I2
sVeran
p5136
I2
sVrapu
p5137
I12
sVetty
p5138
I2
sVkhnh
p5139
I2
sVauda
p5140
I2
sVhiga
p5141
I2
sVngam
p5142
I4
sVettu
p5143
I2
sVstin
p5144
I1
sVuver
p5145
I1
sVuvel
p5146
I1
sVsath
p5147
I2
sVbagi
p5148
I1
sVshan
p5149
I5
sVhank
p5150
I1
sVanka
p5151
I7
sVelli
p5152
I1
sVatam
p5153
I1
sVidya
p5154
I3
sVhana
p5155
I4
sVsree
p5156
I1
sVupta
p5157
I2
sVeeth
p5158
I3
sVmesh
p5159
I1
sVnesh
p5160
I1
sVhith
p5161
I2
sVtesh
p5162
I13
sVkeya
p5163
I1
sVhker
p5164
I1
sVjdar
p5165
I2
sVriya
p5166
I22
sVdevi
p5167
I15
sVndan
p5168
I19
sVmdas
p5169
I2
sVrsha
p5170
I1
sVeyan
p5171
I9
sVwini
p5172
I4
sVtala
p5173
I4
sVnuri
p5174
I1
sVndar
p5175
I4
sVondi
p5176
I1
sVanna
p5177
I4
sVulam
p5178
I1
sVonda
p5179
I3
sVhnan
p5180
I31
sVuthu
p5181
I2
sVhese
p5182
I17
sVaraj
p5183
I15
sVhwar
p5184
I4
sVyulu
p5185
I2
sVondu
p5186
I1
sVsiva
p5187
I1
sVkila
p5188
I2
sVapla
p5189
I1
sVhraf
p5190
I2
sVshri
p5191
I2
sVsnak
p5192
I1
sValla
p5193
I1
sVnpur
p5194
I2
sVavin
p5195
I2
sVnima
p5196
I1
sVatra
p5197
I3
sVsamy
p5198
I5
sValli
p5199
I19
sVdhar
p5200
I8
sVgavi
p5201
I4
sVatch
p5202
I2
sVhini
p5203
I20
sVvasu
p5204
I1
sVally
p5205
I2
sVanya
p5206
I6
sVbanu
p5207
I3
sVdary
p5208
I2
sVnadh
p5209
I1
sVthan
p5210
I16
sVlvam
p5211
I1
sVlvan
p5212
I3
sVhala
p5213
I2
sVaiah
p5214
I6
sVdari
p5215
I1
sVdesh
p5216
I2
sVkash
p5217
I6
sVndla
p5218
I2
sVhali
p5219
I1
sVdara
p5220
I1
sVarai
p5221
I2
sVaran
p5222
I55
sVarao
p5223
I10
sVdare
p5224
I1
sVaram
p5225
I8
sVlika
p5226
I2
sVatha
p5227
I9
sVivas
p5228
I24
sVnson
p5229
I3
sVntla
p5230
I2
sVtrao
p5231
I2
sVtran
p5232
I1
sNI4596
sVivan
p5233
I1
sValee
p5234
I1
sVhhmi
p5235
I1
sVhraj
p5236
I1
sVheen
p5237
I1
sVathi
p5238
I25
sVkera
p5239
I2
sVukar
p5240
I1
sVhari
p5241
I4
sVkani
p5242
I2
sVnavi
p5243
I4
sVerma
p5244
I2
sVrrao
p5245
I1
sVndra
p5246
I14
sVhara
p5247
I1
sVkana
p5248
I1
sVsley
p5249
I2
sVvdas
p5250
I2
sVhary
p5251
I1
sVpala
p5252
I2
sVaxmi
p5253
I4
sVkant
p5254
I2
sVilla
p5255
I2
sVaidu
p5256
I3
sVvada
p5257
I1
sVvadi
p5258
I1
sVdagi
p5259
I1
sVeepa
p5260
I3
sVdapu
p5261
I2
sVvadu
p5262
I1
sVhila
p5263
I1
sVumar
p5264
I117
sVmath
p5265
I9
sVnraj
p5266
I2
sVbasu
p5267
I2
sVhula
p5268
I3
sVshnu
p5269
I1
sVmare
p5270
I2
sVundi
p5271
I2
sVtiar
p5272
I1
sVayak
p5273
I2
sVhosh
p5274
I9
sVtian
p5275
I9
sVruni
p5276
I1
sVfrey
p5277
I1
sVgaon
p5278
I2
sVheek
p5279
I1
sVkhan
p5280
I1
sVathy
p5281
I1
sVusha
p5282
I2
sVttam
p5283
I1
sVarya
p5284
I5
sVothi
p5285
I1
sVayan
p5286
I1
sVamma
p5287
I1
sVukhi
p5288
I2
sVnder
p5289
I3
sVirin
p5290
I2
sVasen
p5291
I2
sVvani
p5292
I11
sVhsmi
p5293
I1
sVamar
p5294
I1
sVrani
p5295
I6
sVdini
p5296
I2
sVbath
p5297
I2
sVwadi
p5298
I3
sVdral
p5299
I1
sVanly
p5300
I1
sVwada
p5301
I2
sVeddi
p5302
I2
sVavel
p5303
I1
sVmmed
p5304
I12
sVppan
p5305
I5
sVjini
p5306
I1
sVeddy
p5307
I10
sVniam
p5308
I1
sVnian
p5309
I4
sVjani
p5310
I2
sVesan
p5311
I4
sVhiya
p5312
I1
sVappa
p5313
I7
sVeena
p5314
I7
sVakan
p5315
I2
sVhuja
p5316
I2
sVrali
p5317
I2
sValad
p5318
I1
sVvena
p5319
I2
sValai
p5320
I2
sValam
p5321
I3
sVetha
p5322
I9
sVdula
p5323
I1
sVivel
p5324
I6
sVhiba
p5325
I2
sVline
p5326
I1
sVakar
p5327
I11
sVtham
p5328
I4
sVique
p5329
I3
sVeppa
p5330
I1
sVjohn
p5331
I1
sVhira
p5332
I1
sVgoud
p5333
I2
sVayil
p5334
I2
sVpula
p5335
I4
sVhika
p5336
I9
sVkini
p5337
I1
sVahim
p5338
I3
sVshgp
p5339
I1
sVhagi
p5340
I1
sVneya
p5341
I1
sVarni
p5342
I16
sVhikp
p5343
I2
sVdana
p5344
I2
sViyar
p5345
I3
sVkuty
p5346
I2
sVnyam
p5347
I1
sVoddu
p5348
I1
sVdass
p5349
I3
sVchan
p5350
I2
sVchal
p5351
I2
sVdeen
p5352
I4
sVeril
p5353
I1
sVndha
p5354
I2
sVlula
p5355
I1
sVhavi
p5356
I6
sVkari
p5357
I2
sVshit
p5358
I2
sViyan
p5359
I3
sVklin
p5360
I2
sVimha
p5361
I3
sVnshi
p5362
I1
sVikmv
p5363
I2
sVonsa
p5364
I2
sVatil
p5365
I2
sVkkel
p5366
I1
sVkpal
p5367
I1
sVnfff
p5368
I1
sVrthi
p5369
I2
sVjuna
p5370
I3
sVozhi
p5371
I4
sVaman
p5372
I9
sVurgi
p5373
I1
sVrtha
p5374
I2
sVdeva
p5375
I1
sVevan
p5376
I5
sVicvk
p5377
I2
sVrthy
p5378
I13
sVishp
p5379
I2
sVdran
p5380
I27
sVwamy
p5381
I3
sVindu
p5382
I4
sVkiya
p5383
I2
sVlraj
p5384
I2
sVarls
p5385
I1
sVadas
p5386
I2
sVarlu
p5387
I1
sVhman
p5388
I3
sVyane
p5389
I2
sVyana
p5390
I5
sVarla
p5391
I2
sVowda
p5392
I2
sVmedh
p5393
I1
stp5394
Rp5395
sg48
I692
sg49
F6632.0
sbs(g12
g1559
tp5396
g0
(g17
g2
Ntp5397
Rp5398
(dp5399
g21
F0.5
sg22
I1494
sg23
g24
((dp5400
Vaha
p5401
I2
sVali
p5402
I6
sVowa
p5403
I1
sVrth
p5404
I3
sVaul
p5405
I2
sVtta
p5406
I2
sVbra
p5407
I4
sVana
p5408
I16
sVcha
p5409
I3
sVwal
p5410
I11
sVhry
p5411
I2
sVwaj
p5412
I5
sVhan
p5413
I2
sVngh
p5414
I5
sVyap
p5415
I4
sVkha
p5416
I2
sVjit
p5417
I2
sVaur
p5418
I8
sVyak
p5419
I2
sVhar
p5420
I7
sVgil
p5421
I2
sVami
p5422
I1
sVnka
p5423
I4
sVhir
p5424
I2
sVney
p5425
I2
sVgan
p5426
I1
sVjut
p5427
I2
sVoor
p5428
I1
sVita
p5429
I3
sVbir
p5430
I2
sVokl
p5431
I2
sVsht
p5432
I2
sVshu
p5433
I1
sVtra
p5434
I11
sVeva
p5435
I5
sVder
p5436
I2
sVaan
p5437
I1
sVeep
p5438
I14
sNI1251
sVeer
p5439
I2
sVsha
p5440
I2
sVeen
p5441
I2
sVslk
p5442
I2
sVber
p5443
I2
sVshi
p5444
I2
sVgni
p5445
I1
sVane
p5446
I1
sVeev
p5447
I3
sVaru
p5448
I1
sVjan
p5449
I2
sVnur
p5450
I2
sVani
p5451
I7
sVant
p5452
I1
sVija
p5453
I4
sVavi
p5454
I4
sVari
p5455
I2
sVsar
p5456
I1
sVter
p5457
I1
sVava
p5458
I2
sVria
p5459
I5
sVhon
p5460
I1
sVabi
p5461
I2
sVeja
p5462
I2
sVeet
p5463
I13
sVgra
p5464
I4
sVaja
p5465
I2
sVdhu
p5466
I1
sVdsa
p5467
I1
sVmar
p5468
I1
sVjot
p5469
I3
sVwan
p5470
I2
sVnia
p5471
I1
sVhal
p5472
I3
sVore
p5473
I2
sVdok
p5474
I1
sVile
p5475
I1
sVnda
p5476
I4
sVthi
p5477
I1
sVhbu
p5478
I2
stp5479
Rp5480
sg48
I549
sg49
F1768.5
sbs(g12
g1289
tp5481
g0
(g17
g2
Ntp5482
Rp5483
(dp5484
g21
F0.5
sg22
I1494
sg23
g24
((dp5485
Vngni
p5486
I1
sVwane
p5487
I1
sVraja
p5488
I2
sVkshi
p5489
I2
sVdeep
p5490
I6
sVumar
p5491
I1
sVrwal
p5492
I8
sVljit
p5493
I2
sVhavi
p5494
I2
sVisht
p5495
I2
sVingh
p5496
I3
sVaria
p5497
I1
sVanda
p5498
I4
sVotra
p5499
I11
sVuria
p5500
I2
sVnshu
p5501
I1
sVarth
p5502
I3
sVgava
p5503
I2
sVawan
p5504
I2
sVjali
p5505
I2
sVanur
p5506
I2
sVanka
p5507
I3
sVreet
p5508
I6
sVethi
p5509
I1
sVdhry
p5510
I2
sVkaur
p5511
I8
sVbber
p5512
I2
sVania
p5513
I1
sVmokl
p5514
I2
sVhyap
p5515
I2
sVmaan
p5516
I1
sVchal
p5517
I2
sVkhon
p5518
I1
sVndhu
p5519
I1
sVksha
p5520
I2
sVdeva
p5521
I5
sVnder
p5522
I2
sViwal
p5523
I3
sVjeet
p5524
I2
sNI1378
sVatta
p5525
I2
sVajut
p5526
I2
sVhjot
p5527
I1
sVdwaj
p5528
I5
stp5529
Rp5530
sg48
I692
sg49
F1840.0
sbs(g11
g3066
tp5531
g0
(g17
g2
Ntp5532
Rp5533
(dp5534
g21
F0.5
sg22
I1444
sg23
g24
((dp5535
I1
I8
sI2
I14
sI3
I268
sI4
I146
sI5
I269
sI6
I276
sI7
I97
sI8
I118
sI9
I92
sI10
I45
sI11
I65
sI12
I27
sI13
I13
sI14
I6
stp5536
Rp5537
sg48
I20
sg49
F1454.0
sbs(g12
g845
tp5538
g0
(g17
g2
Ntp5539
Rp5540
(dp5541
g21
F0.5
sg22
I1494
sg23
g24
((dp5542
Vgu
p5543
I27
sVch
p5544
I42
sVgr
p5545
I4
sVge
p5546
I4
sVga
p5547
I24
sVgo
p5548
I15
sVcr
p5549
I1
sVcv
p5550
I2
sVgi
p5551
I10
sVgh
p5552
I1
sVpr
p5553
I16
sVdu
p5554
I8
sVla
p5555
I11
sVtu
p5556
I7
sVtr
p5557
I2
sVkh
p5558
I36
sVlu
p5559
I5
sVth
p5560
I10
sVti
p5561
I2
sVte
p5562
I1
sVpo
p5563
I3
sVta
p5564
I11
sVdo
p5565
I3
sVhy
p5566
I1
sVan
p5567
I11
sVdh
p5568
I16
sVdi
p5569
I5
sVde
p5570
I7
sVda
p5571
I2
sVhk
p5572
I1
sVhi
p5573
I1
sVjp
p5574
I2
sVha
p5575
I6
sVhe
p5576
I2
sVme
p5577
I21
sVpi
p5578
I1
sVma
p5579
I49
sVmo
p5580
I10
sVmi
p5581
I13
sVup
p5582
I1
sNI9
sVmu
p5583
I1
sVaa
p5584
I2
sVva
p5585
I5
sVab
p5586
I1
sVad
p5587
I2
sVag
p5588
I6
sVaf
p5589
I1
sVve
p5590
I14
sVvi
p5591
I16
sVis
p5592
I1
sVam
p5593
I12
sVal
p5594
I1
sVvo
p5595
I2
sVah
p5596
I7
sVas
p5597
I3
sVar
p5598
I52
sVat
p5599
I4
sVin
p5600
I3
sVes
p5601
I1
sVjy
p5602
I1
sVni
p5603
I10
sVyo
p5604
I1
sVsj
p5605
I1
sVpa
p5606
I19
sVne
p5607
I2
sVak
p5608
I5
sVre
p5609
I5
sVra
p5610
I41
sVri
p5611
I9
sVbe
p5612
I4
sVba
p5613
I35
sVwa
p5614
I15
sVju
p5615
I1
sVbh
p5616
I28
sVbi
p5617
I2
sVbu
p5618
I2
sVjo
p5619
I10
sVjh
p5620
I4
sVji
p5621
I4
sVbr
p5622
I4
sVja
p5623
I28
sVsp
p5624
I2
sVka
p5625
I208
sVsr
p5626
I2
sVki
p5627
I6
sVpu
p5628
I9
sVko
p5629
I14
sVob
p5630
I5
sVsu
p5631
I14
sVle
p5632
I2
sVsi
p5633
I258
sVsh
p5634
I54
sVso
p5635
I25
sVku
p5636
I28
sVna
p5637
I18
sVsa
p5638
I61
sVse
p5639
I20
stp5640
Rp5641
sg48
I285
sg49
F1636.5
sbs(g8
g1559
tp5642
g0
(g17
g2
Ntp5643
Rp5644
(dp5645
g21
F0.5
sg22
I6286
sg23
g24
((dp5646
Vlly
p5647
I2
sVali
p5648
I9
sVnly
p5649
I1
sVuga
p5650
I2
sVale
p5651
I1
sVrti
p5652
I2
sVrth
p5653
I2
sVpta
p5654
I2
sVala
p5655
I38
sVosh
p5656
I16
sVlli
p5657
I20
sVlla
p5658
I5
sVose
p5659
I3
sVraf
p5660
I2
sVver
p5661
I1
sVxmi
p5662
I4
sVaji
p5663
I2
sVjvr
p5664
I2
sVngh
p5665
I1
sVese
p5666
I17
sVjan
p5667
I17
sVvee
p5668
I1
sVhri
p5669
I8
sViel
p5670
I1
sVlin
p5671
I3
sVvel
p5672
I9
sVhra
p5673
I3
sVedh
p5674
I1
sVief
p5675
I1
sVger
p5676
I4
sVhit
p5677
I4
sVhic
p5678
I1
sVira
p5679
I1
sVhik
p5680
I13
sVhim
p5681
I6
sVhin
p5682
I2
sVtri
p5683
I3
sVhya
p5684
I9
sVshr
p5685
I2
sVbar
p5686
I1
sVtra
p5687
I6
sVeva
p5688
I1
sVsha
p5689
I15
sVbad
p5690
I1
sVshi
p5691
I7
sVbal
p5692
I2
sVesh
p5693
I60
sVael
p5694
I3
sVuel
p5695
I2
sVars
p5696
I2
sVeba
p5697
I2
sVary
p5698
I5
sVnur
p5699
I3
sVara
p5700
I5
sVrma
p5701
I3
sVard
p5702
I2
sVare
p5703
I3
sVsad
p5704
I7
sVsen
p5705
I2
sVues
p5706
I1
sVaba
p5707
I2
sVdla
p5708
I3
sViru
p5709
I2
sVain
p5710
I1
sVabu
p5711
I13
sVaby
p5712
I2
sVera
p5713
I8
sVmed
p5714
I13
sVkel
p5715
I2
sVlee
p5716
I1
sVika
p5717
I22
sVfgh
p5718
I2
sVley
p5719
I2
sVket
p5720
I2
sVker
p5721
I1
sVnga
p5722
I2
sVwda
p5723
I2
sVula
p5724
I19
sVunt
p5725
I2
sVila
p5726
I6
sVdru
p5727
I2
sVili
p5728
I2
sVuna
p5729
I3
sVtla
p5730
I2
sVeta
p5731
I2
sVdra
p5732
I24
sVuni
p5733
I1
sVeth
p5734
I5
sVeti
p5735
I2
sVand
p5736
I6
sVane
p5737
I2
sVvin
p5738
I2
sVrva
p5739
I3
sVapu
p5740
I16
sVrlu
p5741
I1
sVsan
p5742
I13
sVeya
p5743
I3
sVcha
p5744
I1
sVore
p5745
I3
sVyap
p5746
I2
sVyas
p5747
I2
sVyar
p5748
I3
sVyam
p5749
I2
sVkon
p5750
I1
sVyan
p5751
I36
sVfer
p5752
I3
sVpur
p5753
I3
sVyak
p5754
I2
sVnka
p5755
I7
sVlgi
p5756
I2
sVhmy
p5757
I2
sVool
p5758
I2
sVoon
p5759
I1
sVgar
p5760
I6
sVgan
p5761
I6
sVgam
p5762
I8
sVoop
p5763
I2
sVrai
p5764
I6
sViya
p5765
I30
sVanu
p5766
I3
sViba
p5767
I4
sVder
p5768
I9
sVdev
p5769
I5
sVulu
p5770
I2
sVuli
p5771
I1
sVcvk
p5772
I2
sVaik
p5773
I1
sVadi
p5774
I5
sVeri
p5775
I1
sVini
p5776
I45
sVsri
p5777
I4
sViva
p5778
I2
sVikp
p5779
I2
sVwka
p5780
I2
sVrin
p5781
I2
sVril
p5782
I1
sVavi
p5783
I33
sVtal
p5784
I1
sVtam
p5785
I2
sVava
p5786
I7
sVena
p5787
I15
sVbhi
p5788
I2
sVdhi
p5789
I5
sVeni
p5790
I7
sVdhe
p5791
I2
sVdha
p5792
I5
sVrya
p5793
I11
sVent
p5794
I3
sVnya
p5795
I20
sVpal
p5796
I7
sVpan
p5797
I5
sVnik
p5798
I1
sVmas
p5799
I2
sVmar
p5800
I119
sVlai
p5801
I2
sVlad
p5802
I1
sVaon
p5803
I2
sVpha
p5804
I1
sVnie
p5805
I2
sVmal
p5806
I3
sVman
p5807
I12
sVthy
p5808
I24
sVthu
p5809
I2
sVegi
p5810
I1
sVvya
p5811
I2
sVthi
p5812
I71
sVuja
p5813
I4
sVtha
p5814
I90
sVepa
p5815
I3
sVtty
p5816
I2
sVith
p5817
I15
sVttu
p5818
I3
sVita
p5819
I4
sVtti
p5820
I8
sVgde
p5821
I2
sVtch
p5822
I2
sVity
p5823
I2
sVfff
p5824
I1
sVffa
p5825
I2
sVima
p5826
I11
sVtil
p5827
I3
sVadu
p5828
I1
sVhal
p5829
I2
sVham
p5830
I24
sVhan
p5831
I45
sVela
p5832
I2
sVdya
p5833
I3
sVada
p5834
I6
sVhap
p5835
I3
sVrgi
p5836
I1
sVhar
p5837
I30
sVadh
p5838
I1
sVelu
p5839
I2
sVami
p5840
I4
sVshp
p5841
I2
sVrni
p5842
I16
sVevi
p5843
I23
sVama
p5844
I4
sVdan
p5845
I22
sVamy
p5846
I8
sVdar
p5847
I9
sVdas
p5848
I12
sVamu
p5849
I1
sVnvi
p5850
I2
sVeev
p5851
I2
sVeep
p5852
I21
sNI3652
sVeer
p5853
I8
sVeen
p5854
I21
sVeek
p5855
I1
sVeej
p5856
I2
sVeed
p5857
I3
sVeef
p5858
I2
sVeeb
p5859
I2
sVola
p5860
I2
sVlam
p5861
I4
sVlan
p5862
I3
sVoud
p5863
I2
sVolu
p5864
I1
sVoly
p5865
I2
sVmha
p5866
I3
sVick
p5867
I6
sVddy
p5868
I11
sVrey
p5869
I1
sVaju
p5870
I18
sVddu
p5871
I1
sVkmv
p5872
I2
sVddi
p5873
I2
sVsmi
p5874
I1
sVaja
p5875
I7
sVree
p5876
I10
sVass
p5877
I3
sVasu
p5878
I3
sVsbu
p5879
I2
sVrla
p5880
I2
sVnti
p5881
I8
sVnth
p5882
I29
sVect
p5883
I2
sVque
p5884
I3
sVpla
p5885
I1
sVnta
p5886
I1
sVasi
p5887
I2
sVash
p5888
I28
sVmma
p5889
I2
sVrls
p5890
I1
sVndi
p5891
I10
sVndo
p5892
I2
sVata
p5893
I3
sVnda
p5894
I3
sVidu
p5895
I3
sVnde
p5896
I1
sVath
p5897
I55
sVati
p5898
I15
sVndy
p5899
I2
sVatt
p5900
I2
sVish
p5901
I12
sVacv
p5902
I2
sVidi
p5903
I2
sVndu
p5904
I7
sVppa
p5905
I12
sVnsa
p5906
I2
sVahi
p5907
I1
sVson
p5908
I12
sVyya
p5909
I1
sViam
p5910
I1
sVhev
p5911
I2
sVian
p5912
I13
sVvan
p5913
I17
sViah
p5914
I7
sVher
p5915
I3
sVvam
p5916
I1
sVyil
p5917
I3
sVvar
p5918
I6
sVvas
p5919
I24
sVhen
p5920
I9
sVwat
p5921
I2
sVwar
p5922
I6
sVias
p5923
I2
sViar
p5924
I4
sVeah
p5925
I2
sVeal
p5926
I1
sVuda
p5927
I2
sVwal
p5928
I2
sVudi
p5929
I3
sVnce
p5930
I5
sVcis
p5931
I5
sVaar
p5932
I1
sVzhi
p5933
I4
sVuty
p5934
I2
sVlvi
p5935
I2
sVsty
p5936
I1
sVpre
p5937
I1
sVrag
p5938
I3
sVohn
p5939
I1
sVana
p5940
I58
sVsal
p5941
I2
sVran
p5942
I90
sVrao
p5943
I15
sVral
p5944
I1
sVram
p5945
I18
sVraj
p5946
I61
sVani
p5947
I59
sVnna
p5948
I5
sVank
p5949
I1
sVant
p5950
I2
sVkhi
p5951
I2
sVlya
p5952
I4
sVari
p5953
I32
sVmya
p5954
I1
sVine
p5955
I3
sVing
p5956
I1
sVina
p5957
I3
sVnak
p5958
I1
sVnah
p5959
I2
sVnan
p5960
I61
sVhgp
p5961
I1
sVnam
p5962
I5
sVnar
p5963
I2
sVtin
p5964
I1
sVnav
p5965
I2
sViga
p5966
I2
sVgav
p5967
I2
sVnaz
p5968
I2
sVkad
p5969
I1
sVkai
p5970
I2
sVkah
p5971
I2
sVkan
p5972
I4
sVkal
p5973
I3
sVkar
p5974
I46
sVest
p5975
I1
sVhna
p5976
I53
sVagi
p5977
I7
sVhnh
p5978
I2
sVuri
p5979
I5
sVuru
p5980
I3
sVhnu
p5981
I1
sVhmi
p5982
I42
stp5983
Rp5984
sg48
I549
sg49
F6560.5
sbs(g11
g15
tp5985
g0
(g17
g2
Ntp5986
Rp5987
(dp5988
g21
F0.5
sg22
I1444
sg23
g24
((dp5989
g26
I7
sg27
I214
sg28
I5
sg29
I121
sg30
I2
sg3053
I3
sg32
I73
sg33
I72
sg34
I43
sg35
I2
sg36
I22
sg37
I71
sNI436
sg38
I49
sg39
I2
sg40
I35
sg41
I112
sg42
I11
sg43
I11
sg44
I3
sg45
I145
sg3055
I5
stp5990
Rp5991
sg48
I27
sg49
F1457.5
sbs(g11
g322
tp5992
g0
(g17
g2
Ntp5993
Rp5994
(dp5995
g21
F0.5
sg22
I1444
sg23
g24
((dp5996
Valo
p5997
I1
sVali
p5998
I9
sVdas
p5999
I101
sVala
p6000
I1
sVroy
p6001
I72
sVros
p6002
I1
sVhaj
p6003
I2
sVhal
p6004
I10
sVaud
p6005
I2
sVhab
p6006
I1
sVjan
p6007
I8
sVhay
p6008
I2
sVhaz
p6009
I4
sVjai
p6010
I1
sVhas
p6011
I3
sVadh
p6012
I10
sVadi
p6013
I5
sVmoy
p6014
I1
sVmor
p6015
I1
sVdat
p6016
I1
sVsik
p6017
I4
sVmoi
p6018
I1
sVmon
p6019
I23
sVsud
p6020
I2
sVmol
p6021
I3
sVbis
p6022
I30
sVshu
p6023
I3
sVguc
p6024
I2
sVshr
p6025
I3
sVpak
p6026
I2
sVbar
p6027
I11
sVbas
p6028
I13
sVsar
p6029
I41
sVguh
p6030
I7
sNI22
sVmit
p6031
I16
sVsha
p6032
I15
sVgup
p6033
I7
sVbab
p6034
I2
sVshe
p6035
I2
sVban
p6036
I35
sVshi
p6037
I1
sVbal
p6038
I5
sVdip
p6039
I1
sVbai
p6040
I5
sVarp
p6041
I1
sVset
p6042
I2
sVted
p6043
I2
sVnup
p6044
I1
sVsea
p6045
I3
sVsen
p6046
I33
sVsek
p6047
I1
sVneo
p6048
I2
sVabb
p6049
I3
sVkmd
p6050
I1
sVesr
p6051
I2
sVsum
p6052
I2
sVsul
p6053
I7
sVeja
p6054
I2
sVkun
p6055
I7
sVkum
p6056
I1
sVsus
p6057
I2
sVsur
p6058
I4
sVmum
p6059
I3
sVmuk
p6060
I35
sVgor
p6061
I2
sVmeh
p6062
I1
sVrud
p6063
I1
sVtuh
p6064
I2
sVasa
p6065
I2
sVash
p6066
I3
sVkes
p6067
I1
sVasm
p6068
I1
sVsra
p6069
I2
sVbaj
p6070
I2
sVbor
p6071
I1
sVbos
p6072
I8
sVkri
p6073
I2
sVatr
p6074
I1
sVisl
p6075
I4
sVaka
p6076
I1
sVsoh
p6077
I1
sVahm
p6078
I2
sVmai
p6079
I12
sVpol
p6080
I3
sVsah
p6081
I24
sVsou
p6082
I4
sVsov
p6083
I1
sVpod
p6084
I5
sVana
p6085
I2
sVcha
p6086
I118
sVbho
p6087
I10
sVcho
p6088
I36
sVran
p6089
I3
sVlas
p6090
I5
sVhem
p6091
I2
sVman
p6092
I32
sVdut
p6093
I35
sVgaz
p6094
I1
sVbur
p6095
I2
sVraj
p6096
I6
sVada
p6097
I1
sVgar
p6098
I2
sVani
p6099
I1
sVgan
p6100
I15
sVnaz
p6101
I3
sVanj
p6102
I2
sVhur
p6103
I2
sVhus
p6104
I1
sVbub
p6105
I2
sVgos
p6106
I3
sVdey
p6107
I24
sVaaf
p6108
I1
sVazm
p6109
I1
sVbeg
p6110
I5
sVdiy
p6111
I2
sVdew
p6112
I1
sVber
p6113
I8
sVsas
p6114
I1
sVdeb
p6115
I15
sVdee
p6116
I2
sVpre
p6117
I1
sVpij
p6118
I2
sVach
p6119
I7
sVpra
p6120
I9
sVsan
p6121
I13
sVsam
p6122
I5
sVsal
p6123
I1
sVbha
p6124
I38
sVsab
p6125
I2
sVsaa
p6126
I1
sVpri
p6127
I3
sVsaf
p6128
I1
sVrah
p6129
I7
sVsad
p6130
I1
sVgou
p6131
I1
sVpiy
p6132
I4
sVsay
p6133
I2
sVans
p6134
I5
sVtal
p6135
I2
sVkha
p6136
I15
sVsap
p6137
I2
sVbhu
p6138
I2
sVray
p6139
I6
sVpap
p6140
I1
sVsir
p6141
I1
sVpar
p6142
I1
sVafo
p6143
I2
sVpat
p6144
I7
sVnag
p6145
I2
sVnad
p6146
I3
sVmia
p6147
I1
sVpay
p6148
I2
sVnah
p6149
I2
sVnai
p6150
I2
sVnan
p6151
I2
sVdha
p6152
I13
sVrat
p6153
I5
sVnar
p6154
I2
sVhot
p6155
I1
sVakh
p6156
I1
sVsig
p6157
I2
sVhos
p6158
I2
sVnat
p6159
I5
sVpah
p6160
I1
sVmis
p6161
I4
sVnay
p6162
I4
sVpal
p6163
I13
sVsin
p6164
I8
sVpan
p6165
I2
sVsil
p6166
I2
sVnab
p6167
I1
sVmar
p6168
I2
sVlah
p6169
I6
sVnil
p6170
I1
sVlak
p6171
I2
sVpau
p6172
I26
sVmaz
p6173
I4
sVhod
p6174
I2
sVkam
p6175
I5
sVkas
p6176
I2
sVkar
p6177
I24
sVkap
p6178
I2
sVlay
p6179
I1
sVlat
p6180
I5
sVmah
p6181
I8
sVkay
p6182
I3
sVmaj
p6183
I13
sVmal
p6184
I8
sVsub
p6185
I4
sVgha
p6186
I2
sVgol
p6187
I2
sVgho
p6188
I59
sVtha
p6189
I3
sVdhu
p6190
I2
stp6191
Rp6192
sg48
I1153
sg49
F2020.5
sbs(g8
g845
tp6193
g0
(g17
g2
Ntp6194
Rp6195
(dp6196
g21
F0.5
sg22
I6286
sg23
g24
((dp6197
Vgu
p6198
I20
sVgr
p6199
I5
sVis
p6200
I6
sVge
p6201
I23
sVgb
p6202
I1
sVga
p6203
I51
sVgo
p6204
I65
sVgn
p6205
I1
sVgl
p6206
I1
sVgk
p6207
I1
sVgj
p6208
I2
sVgi
p6209
I10
sVgh
p6210
I1
sVle
p6211
I6
sVla
p6212
I102
sVlo
p6213
I13
sVtu
p6214
I7
sVtr
p6215
I2
sVts
p6216
I1
sVli
p6217
I15
sVto
p6218
I4
sVlu
p6219
I4
sVtk
p6220
I1
sVth
p6221
I40
sVti
p6222
I6
sVsu
p6223
I178
sVte
p6224
I12
sVta
p6225
I6
sVdo
p6226
I9
sVdh
p6227
I22
sVdi
p6228
I32
sVya
p6229
I30
sVdg
p6230
I2
sVde
p6231
I63
sVye
p6232
I4
sVdc
p6233
I2
sVda
p6234
I52
sVst
p6235
I8
sVdu
p6236
I10
sVyu
p6237
I12
sVds
p6238
I3
sVdp
p6239
I2
sNI952
sVml
p6240
I4
sVsp
p6241
I4
sVel
p6242
I11
sVen
p6243
I2
sVed
p6244
I4
sVea
p6245
I1
sVza
p6246
I2
sVec
p6247
I1
sVku
p6248
I247
sVus
p6249
I5
sVim
p6250
I2
sVzu
p6251
I2
sVur
p6252
I2
sVep
p6253
I2
sVes
p6254
I5
sVba
p6255
I104
sVmu
p6256
I75
sVre
p6257
I117
sVrg
p6258
I2
sVra
p6259
I374
sVrl
p6260
I1
sVro
p6261
I25
sVri
p6262
I10
sVbe
p6263
I16
sVjy
p6264
I12
sVbc
p6265
I2
sVbl
p6266
I3
sVbm
p6267
I6
sVbn
p6268
I3
sVbo
p6269
I4
sVbh
p6270
I62
sVbi
p6271
I18
sVbu
p6272
I5
sVjo
p6273
I65
sVji
p6274
I14
sVbr
p6275
I3
sVbs
p6276
I2
sVje
p6277
I19
sVby
p6278
I3
sVoo
p6279
I1
sVon
p6280
I1
sVom
p6281
I1
sVol
p6282
I2
sVms
p6283
I4
sVoi
p6284
I2
sVty
p6285
I2
sVoy
p6286
I1
sVou
p6287
I2
sVor
p6288
I2
sVvi
p6289
I127
sVaa
p6290
I10
sVch
p6291
I110
sVcn
p6292
I3
sVcm
p6293
I2
sVcl
p6294
I1
sVal
p6295
I26
sVca
p6296
I3
sVxa
p6297
I2
sVxy
p6298
I1
sVcs
p6299
I2
sVcr
p6300
I2
sVve
p6301
I60
sVpr
p6302
I207
sVps
p6303
I5
sVpp
p6304
I2
sVpv
p6305
I5
sVpu
p6306
I25
sVja
p6307
I81
sVpc
p6308
I1
sVpa
p6309
I108
sVsw
p6310
I42
sVpe
p6311
I21
sVpj
p6312
I4
sVph
p6313
I1
sVpi
p6314
I21
sVpn
p6315
I2
sVpo
p6316
I21
sVpm
p6317
I6
sVhy
p6318
I2
sVhr
p6319
I1
sVhs
p6320
I2
sVhp
p6321
I2
sVka
p6322
I170
sVhu
p6323
I2
sVhi
p6324
I12
sVho
p6325
I1
sVhm
p6326
I2
sVha
p6327
I42
sVhe
p6328
I20
sVme
p6329
I39
sVmg
p6330
I1
sVma
p6331
I200
sVsc
p6332
I4
sVmc
p6333
I3
sVmm
p6334
I1
sVut
p6335
I2
sVmo
p6336
I62
sVmi
p6337
I14
sVup
p6338
I5
sVmk
p6339
I6
sVmj
p6340
I2
sVum
p6341
I4
sVss
p6342
I3
sVun
p6343
I12
sVmp
p6344
I2
sVuk
p6345
I2
sVmr
p6346
I1
sVud
p6347
I5
sVug
p6348
I1
sVmy
p6349
I2
sVub
p6350
I1
sViy
p6351
I19
sVva
p6352
I74
sVac
p6353
I10
sVab
p6354
I30
sVad
p6355
I11
sVai
p6356
I10
sVip
p6357
I1
sVak
p6358
I7
sVaj
p6359
I2
sVam
p6360
I32
sVvm
p6361
I1
sVvn
p6362
I1
sVan
p6363
I136
sVvp
p6364
I2
sVap
p6365
I7
sVvr
p6366
I1
sVar
p6367
I63
sVvt
p6368
I1
sVvu
p6369
I2
sVav
p6370
I5
sVay
p6371
I1
sVaz
p6372
I2
sVas
p6373
I21
sVni
p6374
I45
sVev
p6375
I1
sVyo
p6376
I5
sVnn
p6377
I2
sVno
p6378
I5
sVil
p6379
I1
sVna
p6380
I216
sVne
p6381
I15
sVsh
p6382
I183
sVvo
p6383
I2
sVer
p6384
I3
sVkv
p6385
I6
sVse
p6386
I58
sVfr
p6387
I7
sVsv
p6388
I2
sVru
p6389
I3
sVit
p6390
I2
sVfa
p6391
I8
sVfe
p6392
I4
sVfi
p6393
I1
sVau
p6394
I3
sVfl
p6395
I2
sVnm
p6396
I2
sVkb
p6397
I3
sVsy
p6398
I8
sVin
p6399
I5
sVke
p6400
I12
sVkk
p6401
I3
sVsr
p6402
I132
sVki
p6403
I30
sVkh
p6404
I3
sVko
p6405
I28
sVkn
p6406
I1
sVkm
p6407
I1
sVkl
p6408
I3
sVks
p6409
I1
sVkr
p6410
I53
sVsi
p6411
I66
sVkp
p6412
I3
sVso
p6413
I56
sVsn
p6414
I6
sVsm
p6415
I2
sVkt
p6416
I2
sVat
p6417
I5
sVsa
p6418
I266
sVsg
p6419
I1
sVsf
p6420
I1
sVib
p6421
I3
sVsd
p6422
I4
stp6423
Rp6424
sg48
I285
sg49
F6428.5
sbs(g12
g3066
tp6425
g0
(g17
g2
Ntp6426
Rp6427
(dp6428
g21
F0.5
sg22
I1494
sg23
g24
((dp6429
I1
I9
sI2
I5
sI3
I15
sI4
I291
sI5
I596
sI6
I335
sI7
I127
sI8
I67
sI9
I22
sI10
I13
sI11
I1
sI12
I4
sI13
I5
sI14
I1
sI15
I3
stp6430
Rp6431
sg48
I20
sg49
F1504.0
sbs(g8
g60
tp6432
g0
(g17
g2
Ntp6433
Rp6434
(dp6435
g21
F0.5
sg22
I6286
sg23
g24
((dp6436
Vabir
p6437
I2
sVabis
p6438
I2
sVvush
p6439
I2
sVvadn
p6440
I2
sVjeof
p6441
I1
sVsuni
p6442
I10
sVsunn
p6443
I2
sVabil
p6444
I1
sVsund
p6445
I21
sVsune
p6446
I5
sVkumu
p6447
I1
sVrizw
p6448
I4
sVmyla
p6449
I1
sVswam
p6450
I7
sVliji
p6451
I4
sVswan
p6452
I2
sVswat
p6453
I8
sVswap
p6454
I11
sVkuma
p6455
I202
sVbika
p6456
I2
sVkumm
p6457
I1
sVvann
p6458
I1
sVsona
p6459
I4
sVrish
p6460
I1
sVremy
p6461
I1
sVsoni
p6462
I1
sVhema
p6463
I7
sVjaco
p6464
I5
sVkave
p6465
I2
sVsonu
p6466
I3
sVsony
p6467
I2
sVverm
p6468
I1
sVvasu
p6469
I7
sVsant
p6470
I24
sVsanr
p6471
I2
sVsang
p6472
I14
sVsand
p6473
I18
sVsana
p6474
I2
sVanan
p6475
I19
sVisma
p6476
I1
sVsanj
p6477
I13
sVsank
p6478
I10
sVchet
p6479
I6
sVcher
p6480
I1
sVhaar
p6481
I2
sVnair
p6482
I51
sVpast
p6483
I2
sVpasu
p6484
I5
sVratc
p6485
I1
sVnaik
p6486
I12
sVnaid
p6487
I10
sVratn
p6488
I2
sVchel
p6489
I3
sVchek
p6490
I2
sVrath
p6491
I8
sVgunn
p6492
I1
sVgani
p6493
I1
sVbmen
p6494
I1
sVnann
p6495
I1
sVgund
p6496
I1
sVnand
p6497
I11
sVguna
p6498
I3
sVabid
p6499
I2
sVasiv
p6500
I1
sVgunt
p6501
I1
sVhasi
p6502
I1
sVnawa
p6503
I1
sVmula
p6504
I1
sVsuga
p6505
I3
sVpate
p6506
I1
sVsugu
p6507
I5
sVpath
p6508
I1
sVpatn
p6509
I3
sVbhus
p6510
I2
sVbhuv
p6511
I3
sVrazi
p6512
I2
sVjame
p6513
I3
sVreka
p6514
I2
sVvign
p6515
I8
sVrekh
p6516
I7
sVsoga
p6517
I1
sVhima
p6518
I5
sVsusa
p6519
I4
sVbyre
p6520
I1
sVxavi
p6521
I2
sVippi
p6522
I1
sVrafn
p6523
I1
sVrafi
p6524
I1
sVitha
p6525
I2
sVsita
p6526
I2
sVmora
p6527
I1
sVapar
p6528
I1
sVkumb
p6529
I1
sVabra
p6530
I11
sVmirj
p6531
I2
sVange
p6532
I3
sVteeg
p6533
I1
sVswar
p6534
I2
sVpudi
p6535
I1
sVkoma
p6536
I1
sVamut
p6537
I2
sVshee
p6538
I3
sVmust
p6539
I2
sVakit
p6540
I1
sVkodi
p6541
I1
sVroog
p6542
I1
sVmall
p6543
I9
sVmali
p6544
I5
sVroop
p6545
I4
sVamru
p6546
I2
sVakil
p6547
I1
sVmala
p6548
I6
sVjenn
p6549
I1
sVlude
p6550
I1
sVludh
p6551
I1
sVponr
p6552
I1
sVponn
p6553
I1
sVscar
p6554
I4
sVhuga
p6555
I1
sVgatt
p6556
I3
sVsaty
p6557
I5
sVsrut
p6558
I6
sVbunn
p6559
I1
sVsrun
p6560
I1
sVsath
p6561
I23
sVsati
p6562
I5
sVkaja
p6563
I1
sVvasa
p6564
I4
sVadit
p6565
I2
sVadiv
p6566
I1
sVmoun
p6567
I1
sVrudr
p6568
I1
sVadig
p6569
I1
sVarch
p6570
I16
sVadin
p6571
I1
sVgaja
p6572
I2
sVaash
p6573
I2
sVamit
p6574
I7
sValph
p6575
I2
sVkizh
p6576
I2
sVjack
p6577
I1
sVvaru
p6578
I2
sVvart
p6579
I1
sVniki
p6580
I4
sVvars
p6581
I2
sVneth
p6582
I3
sVrang
p6583
I7
sVpanc
p6584
I3
sVsoor
p6585
I4
sVpana
p6586
I1
sVvara
p6587
I1
sVbrin
p6588
I1
sVpand
p6589
I4
sVvarm
p6590
I3
sVvari
p6591
I2
sVpann
p6592
I3
sVvark
p6593
I2
sVpras
p6594
I36
sVprat
p6595
I10
sValla
p6596
I4
sVprav
p6597
I25
sVdcru
p6598
I2
sVlate
p6599
I30
sVpend
p6600
I1
sVprad
p6601
I16
sVprak
p6602
I17
sVorug
p6603
I2
sVpram
p6604
I1
sVlath
p6605
I9
sVpran
p6606
I1
sVbanu
p6607
I5
sVthen
p6608
I3
sVanil
p6609
I5
sVthej
p6610
I3
sVanat
p6611
I2
sVbang
p6612
I2
sVpegu
p6613
I2
sVanit
p6614
I9
sVanis
p6615
I1
sVbagi
p6616
I2
sValex
p6617
I6
sVbhav
p6618
I9
sVsidn
p6619
I2
sVsidd
p6620
I8
sVlucj
p6621
I2
sVnava
p6622
I5
sVlige
p6623
I2
sVtumm
p6624
I2
sVnave
p6625
I9
sVhari
p6626
I24
sVsada
p6627
I2
sVhare
p6628
I3
sVzabe
p6629
I2
sVhani
p6630
I1
sVhara
p6631
I2
sVloga
p6632
I1
sVnavy
p6633
I2
sVjawa
p6634
I1
sVhars
p6635
I1
sVanag
p6636
I1
sVdaph
p6637
I2
sVvadi
p6638
I1
sVabhi
p6639
I3
sVinba
p6640
I1
sVreji
p6641
I2
sVnith
p6642
I7
sVrech
p6643
I1
sVdund
p6644
I2
sVvetu
p6645
I1
sVvetr
p6646
I2
sVbasa
p6647
I2
sVaziz
p6648
I2
sVbask
p6649
I3
sVbash
p6650
I6
sVsahe
p6651
I3
sVsaha
p6652
I4
sVkunu
p6653
I1
sVbija
p6654
I2
sVloui
p6655
I1
sVkuna
p6656
I1
sVrach
p6657
I4
sVkund
p6658
I6
sVkunn
p6659
I2
sVdaya
p6660
I3
sVbhag
p6661
I2
sVbhaa
p6662
I1
sVdina
p6663
I1
sVmish
p6664
I1
sVbham
p6665
I2
sVbhal
p6666
I2
sVnach
p6667
I2
sVbhan
p6668
I1
sVrani
p6669
I7
sVranj
p6670
I7
sVbhat
p6671
I3
sVdint
p6672
I1
sVdone
p6673
I1
sVbhas
p6674
I8
sVbhar
p6675
I28
sVjeya
p6676
I2
sVronn
p6677
I1
sVamsa
p6678
I2
sVesai
p6679
I1
sVniak
p6680
I2
sVmama
p6681
I2
sVjohn
p6682
I14
sVpare
p6683
I1
sVpara
p6684
I9
sVeshw
p6685
I1
sVnomu
p6686
I2
sVpark
p6687
I1
sVpari
p6688
I5
sVparv
p6689
I2
sVmohi
p6690
I2
sVonas
p6691
I1
sVdani
p6692
I3
sVmuba
p6693
I1
sVmube
p6694
I3
sVdana
p6695
I1
sVkarr
p6696
I1
sVkarp
p6697
I1
sVseet
p6698
I2
sVminn
p6699
I2
sVkaru
p6700
I2
sVmina
p6701
I1
sVesth
p6702
I2
sVchen
p6703
I3
sVkara
p6704
I4
sVseen
p6705
I4
sVseem
p6706
I2
sVkarn
p6707
I1
sVyuva
p6708
I12
sVteje
p6709
I2
sVteja
p6710
I5
sVkaya
p6711
I2
sVteju
p6712
I1
sVtejr
p6713
I2
sVselv
p6714
I29
sVdian
p6715
I1
sVamal
p6716
I7
sVaman
p6717
I2
sVarvi
p6718
I1
sVkoki
p6719
I1
sVmupp
p6720
I1
sVnanj
p6721
I2
sVshyl
p6722
I2
sVgopi
p6723
I7
sVglor
p6724
I1
sVshya
p6725
I1
sVaugu
p6726
I3
sVgopa
p6727
I3
sVraaj
p6728
I3
sVsibi
p6729
I2
sVniha
p6730
I1
sVflor
p6731
I2
sVpuja
p6732
I3
sVgabr
p6733
I2
sVsekh
p6734
I4
sVseka
p6735
I2
sVgabb
p6736
I2
sVgola
p6737
I2
sVsaga
p6738
I8
sVbomi
p6739
I1
sVpriy
p6740
I43
sVsowj
p6741
I2
sVsowm
p6742
I7
sVpris
p6743
I1
sVprit
p6744
I1
sVarpi
p6745
I1
sVkada
p6746
I6
sVkadb
p6747
I2
sVkadd
p6748
I2
sVbush
p6749
I2
sVmeno
p6750
I12
sVtham
p6751
I1
sVrich
p6752
I2
sVarpu
p6753
I1
sVmena
p6754
I2
sVamul
p6755
I1
sVsilp
p6756
I1
sVkaka
p6757
I2
sVsilu
p6758
I1
sVsilv
p6759
I2
sVdhil
p6760
I2
sVkaki
p6761
I2
sVbuhy
p6762
I2
sVgeet
p6763
I7
sVdhir
p6764
I2
sVdhiv
p6765
I2
sVjabe
p6766
I1
sVearn
p6767
I1
sVgaut
p6768
I2
sVgaur
p6769
I1
sVsaud
p6770
I2
sVarya
p6771
I3
sVvini
p6772
I2
sVvino
p6773
I18
sVfais
p6774
I2
sVvina
p6775
I10
sVvinc
p6776
I2
sVpadm
p6777
I4
sVclem
p6778
I1
sVdumm
p6779
I1
sVatla
p6780
I1
sVpete
p6781
I7
sVyada
p6782
I7
sVsaid
p6783
I2
sVdeiv
p6784
I2
sVsaib
p6785
I2
sVhebs
p6786
I1
sVsain
p6787
I2
sVsaim
p6788
I1
sVvont
p6789
I2
sVsaik
p6790
I4
sVsais
p6791
I1
sVkkan
p6792
I1
sVhebb
p6793
I3
sVishi
p6794
I1
sVbibi
p6795
I2
sVoomm
p6796
I1
sVsola
p6797
I1
sVsrav
p6798
I6
sVpamm
p6799
I3
sVbose
p6800
I1
sVmanu
p6801
I2
sVveer
p6802
I5
sVriji
p6803
I2
sValok
p6804
I2
sVmegh
p6805
I6
sVthom
p6806
I11
sVthoo
p6807
I2
sVanoo
p6808
I2
sVdora
p6809
I1
sVveen
p6810
I9
sVlask
p6811
I2
sVvaid
p6812
I1
sVgoya
p6813
I1
sVtond
p6814
I2
sVvaib
p6815
I2
sVbell
p6816
I4
sVravu
p6817
I2
sVjaya
p6818
I25
sVbelg
p6819
I1
sVvaik
p6820
I1
sVpati
p6821
I25
sVravi
p6822
I34
sVfemi
p6823
I1
sVvais
p6824
I3
sVjayp
p6825
I1
sVvija
p6826
I41
sVbamn
p6827
I1
sVgupt
p6828
I2
sVkart
p6829
I34
sVreth
p6830
I1
sVjavi
p6831
I1
sVbeem
p6832
I2
sVting
p6833
I2
sVkutt
p6834
I5
sVdamo
p6835
I4
sVbeev
p6836
I2
sVersh
p6837
I2
sVfiro
p6838
I1
sVdixi
p6839
I1
sVneha
p6840
I3
sVkotr
p6841
I1
sVnaya
p6842
I7
sVvana
p6843
I1
sVvand
p6844
I5
sVkoth
p6845
I3
sVkoti
p6846
I4
sVvani
p6847
I5
sVvank
p6848
I1
sVkote
p6849
I1
sVrehm
p6850
I2
sVdavi
p6851
I13
sVkota
p6852
I2
sVsuha
p6853
I2
sVbila
p6854
I1
sVbill
p6855
I4
sVsfkj
p6856
I1
sVpill
p6857
I19
sVrema
p6858
I2
sVtanu
p6859
I1
sVbeza
p6860
I2
sVreme
p6861
I1
sVmotg
p6862
I2
sVuday
p6863
I3
sVyath
p6864
I2
sVyati
p6865
I1
sVjesu
p6866
I1
sVmaya
p6867
I2
sVadhi
p6868
I3
sVjyot
p6869
I12
sVshar
p6870
I11
sVshas
p6871
I7
sVbalu
p6872
I1
sVloka
p6873
I3
sVbhoo
p6874
I1
sVnikk
p6875
I1
sVnikh
p6876
I2
sVhonn
p6877
I1
sVmaka
p6878
I1
sVshab
p6879
I4
sVshaf
p6880
I2
sVshaj
p6881
I1
sVshak
p6882
I1
sVshah
p6883
I4
sVshai
p6884
I7
sVshan
p6885
I22
sVshal
p6886
I5
sVsham
p6887
I8
sVraib
p6888
I2
sVreag
p6889
I2
sVkemp
p6890
I2
sVelle
p6891
I2
sVdine
p6892
I5
sVbyak
p6893
I2
sVellu
p6894
I2
sVaisa
p6895
I1
sVaish
p6896
I9
sVdada
p6897
I2
sVakki
p6898
I1
sVkala
p6899
I11
sVkalb
p6900
I1
sVkale
p6901
I3
sVkali
p6902
I3
sVkall
p6903
I1
sVkalp
p6904
I6
sVkalv
p6905
I2
sVkaly
p6906
I4
sVsimn
p6907
I2
sVjose
p6908
I37
sVjosh
p6909
I2
sVdhan
p6910
I9
sVdham
p6911
I2
sVgavi
p6912
I1
sVdhav
p6913
I2
sVsavi
p6914
I3
sVdhay
p6915
I1
sVsava
p6916
I3
sVarav
p6917
I2
sVgovi
p6918
I8
sVkast
p6919
I2
sVshwe
p6920
I7
sVapur
p6921
I1
sVsaje
p6922
I4
sVkasi
p6923
I2
sVkash
p6924
I2
sVarad
p6925
I1
sVjibi
p6926
I1
sVsuks
p6927
I2
sVgadd
p6928
I2
sVgadg
p6929
I2
sVgada
p6930
I2
sVarju
p6931
I4
sVbiha
p6932
I1
sVsomi
p6933
I2
sVsoma
p6934
I8
sVsome
p6935
I1
sVpall
p6936
I6
sVjill
p6937
I1
sVpala
p6938
I4
sVsoms
p6939
I2
sVsomu
p6940
I2
sVvedu
p6941
I2
sVsura
p6942
I4
sVumes
p6943
I2
sVsaan
p6944
I1
sVveda
p6945
I1
sVanna
p6946
I6
sVpeek
p6947
I1
sVsriv
p6948
I4
sVgoma
p6949
I2
sVsrir
p6950
I4
sVsris
p6951
I1
sVanwe
p6952
I2
sVsrin
p6953
I39
sVsrih
p6954
I1
sVsrik
p6955
I6
sVpeer
p6956
I2
sVkhan
p6957
I2
sVacha
p6958
I7
sVliya
p6959
I2
sVyagn
p6960
I2
sVsakk
p6961
I1
sVpenj
p6962
I1
sVhynd
p6963
I1
sVprej
p6964
I2
sVoill
p6965
I2
sVbatc
p6966
I2
sVmuku
p6967
I2
sVghan
p6968
I1
sVerra
p6969
I1
sVamar
p6970
I2
sVfern
p6971
I2
sVjeni
p6972
I2
sVlakk
p6973
I5
sVnaag
p6974
I1
sVajay
p6975
I1
sVkoun
p6976
I2
sVtade
p6977
I2
sVjene
p6978
I1
sVnekk
p6979
I2
sVsubh
p6980
I6
sVsubi
p6981
I2
sVspan
p6982
I2
sVjanu
p6983
I2
sVniva
p6984
I1
sVjana
p6985
I12
sVomka
p6986
I1
sVjaga
p6987
I8
sVdipt
p6988
I2
sVmure
p6989
I2
sVbere
p6990
I1
sVheat
p6991
I2
sVpiya
p6992
I1
sVling
p6993
I1
sVlinc
p6994
I1
sVreen
p6995
I3
sVsaja
p6996
I2
sVvive
p6997
I1
sVaneg
p6998
I1
sVanee
p6999
I1
sVsupr
p7000
I2
sVsaji
p7001
I2
sVxyza
p7002
I1
sVsaju
p7003
I2
sVbatt
p7004
I1
sVsyam
p7005
I7
sVbida
p7006
I1
sVshij
p7007
I2
sVdill
p7008
I4
sVdili
p7009
I1
sVheje
p7010
I2
sVshil
p7011
I4
sVshib
p7012
I2
sVchak
p7013
I7
sVchai
p7014
I4
sVchan
p7015
I42
sVrahm
p7016
I3
sVchar
p7017
I1
sVchap
p7018
I2
sVhame
p7019
I1
sVchav
p7020
I2
sVrahu
p7021
I10
sVshir
p7022
I3
sVtriv
p7023
I2
sVshiv
p7024
I11
sViyan
p7025
I1
sVhafi
p7026
I3
sVkirt
p7027
I5
sVkiru
p7028
I5
sVtitu
p7029
I2
sVnico
p7030
I2
sVtest
p7031
I1
sVleel
p7032
I4
sVkira
p7033
I13
sVtaru
p7034
I1
sVkore
p7035
I1
sVkora
p7036
I2
sVvahi
p7037
I2
sVneet
p7038
I2
sVevan
p7039
I1
sVfeli
p7040
I1
sVland
p7041
I1
sVsoja
p7042
I2
sVlank
p7043
I1
sVbeds
p7044
I2
sVlawr
p7045
I3
sVvict
p7046
I1
sVpush
p7047
I4
sVyazh
p7048
I1
sVgant
p7049
I2
sVgowd
p7050
I19
sVkatt
p7051
I1
sVkath
p7052
I1
sVbaby
p7053
I2
sVhris
p7054
I1
sVgang
p7055
I6
sVgane
p7056
I8
sVganj
p7057
I2
sVgowt
p7058
I4
sVgowr
p7059
I4
sVmeyy
p7060
I1
sVjije
p7061
I1
sVarig
p7062
I1
sVariv
p7063
I2
sVkeda
p7064
I2
sVsent
p7065
I5
sVjero
p7066
I2
sVdokk
p7067
I2
sVmlai
p7068
I2
sVjish
p7069
I1
sVunni
p7070
I10
sVnijo
p7071
I1
sVenoc
p7072
I1
sVjoel
p7073
I3
sVmaha
p7074
I13
sVshob
p7075
I3
sVmahe
p7076
I14
sVaswa
p7077
I3
sVaswi
p7078
I3
sVyali
p7079
I2
sVyall
p7080
I3
sVvelm
p7081
I2
sVthip
p7082
I1
sVveli
p7083
I3
sVbakt
p7084
I1
sVnaga
p7085
I31
sVbakr
p7086
I1
sVbakk
p7087
I2
sVsaya
p7088
I1
sVkoda
p7089
I3
sVkrit
p7090
I2
sVsapn
p7091
I2
sVkris
p7092
I46
sVmelv
p7093
I1
sVhyma
p7094
I1
sVmell
p7095
I1
sVbira
p7096
I3
sVkamb
p7097
I2
sVkama
p7098
I8
sVkame
p7099
I3
sVsrip
p7100
I1
sVsing
p7101
I3
sVsind
p7102
I13
sVbodd
p7103
I1
sVajis
p7104
I1
sVroos
p7105
I1
sVkemb
p7106
I1
sVdsou
p7107
I2
sVstep
p7108
I7
sVpryn
p7109
I2
sVstev
p7110
I1
sVsiri
p7111
I2
sVsrid
p7112
I18
sVjaff
p7113
I2
sVredd
p7114
I65
sVfakh
p7115
I2
sVleks
p7116
I2
sVprem
p7117
I5
sVpera
p7118
I1
sVandi
p7119
I1
sVperf
p7120
I2
sVepsh
p7121
I2
sVthri
p7122
I2
sVpree
p7123
I15
sVperi
p7124
I2
sVlaxm
p7125
I7
sVroda
p7126
I2
sVandy
p7127
I1
sVperu
p7128
I2
sVsakt
p7129
I7
sVswet
p7130
I12
sVlivi
p7131
I2
sVbabu
p7132
I19
sVsora
p7133
I2
sVgjba
p7134
I2
sVmeen
p7135
I10
sValim
p7136
I2
sVthis
p7137
I2
sVthir
p7138
I1
sVsouj
p7139
I1
sVsoum
p7140
I7
sValif
p7141
I1
sVsoun
p7142
I1
sVpoul
p7143
I1
sValiy
p7144
I3
sVdaks
p7145
I1
sVsaba
p7146
I2
sVsude
p7147
I2
sVsuda
p7148
I2
sVchir
p7149
I1
sVsudh
p7150
I17
sVrodd
p7151
I2
sVchit
p7152
I1
sVchik
p7153
I3
sVraph
p7154
I1
sVchin
p7155
I8
sVrodr
p7156
I1
sVchid
p7157
I2
sVgurr
p7158
I2
sVvibi
p7159
I1
sVvibh
p7160
I2
sVpuru
p7161
I1
sVguru
p7162
I4
sVreva
p7163
I6
sVraya
p7164
I1
sVpura
p7165
I3
sVgura
p7166
I1
sVnare
p7167
I10
sVnara
p7168
I22
sVpurn
p7169
I6
sVchri
p7170
I3
sVpink
p7171
I1
sVabdu
p7172
I8
sVfran
p7173
I7
sVfaro
p7174
I2
sVdiva
p7175
I2
sVdivy
p7176
I14
sVgror
p7177
I2
sVdata
p7178
I1
sVelum
p7179
I2
sVmuha
p7180
I5
sVkurn
p7181
I2
sVdeva
p7182
I14
sVashw
p7183
I6
sVissa
p7184
I3
sVkuri
p7185
I6
sVvikr
p7186
I1
sVbind
p7187
I2
sVdevi
p7188
I19
sVjais
p7189
I1
sVnouf
p7190
I3
sVsuja
p7191
I10
sVhegd
p7192
I2
sVjaij
p7193
I2
sVjain
p7194
I1
sVhegn
p7195
I1
sVkuru
p7196
I3
sVmuth
p7197
I16
sVkond
p7198
I2
sVkone
p7199
I1
sVsubr
p7200
I7
sVtula
p7201
I3
sVenna
p7202
I1
sVroja
p7203
I1
sVavin
p7204
I4
sVnima
p7205
I1
sVshgs
p7206
I2
sVtuls
p7207
I2
sVyami
p7208
I2
sVrabi
p7209
I2
sVkous
p7210
I2
sVgudl
p7211
I1
sVrakh
p7212
I2
sVnada
p7213
I3
sVrake
p7214
I6
sVnadg
p7215
I2
sVkish
p7216
I3
sVgudu
p7217
I4
sVnama
p7218
I2
sVnamb
p7219
I2
sVmodu
p7220
I2
sVpuro
p7221
I2
sVkeru
p7222
I1
sVoliv
p7223
I2
sNI1227
sVedis
p7224
I2
sVnamr
p7225
I2
sVsube
p7226
I2
sVmode
p7227
I2
sVkann
p7228
I11
sVkran
p7229
I1
sVnisa
p7230
I3
sVkani
p7231
I2
sVtyag
p7232
I2
sVsuba
p7233
I2
sVkanc
p7234
I1
sVkana
p7235
I14
sVgire
p7236
I2
sVkanv
p7237
I2
sVkant
p7238
I4
sVgiri
p7239
I8
sVmatu
p7240
I1
sVgeor
p7241
I16
sVudup
p7242
I2
sVaath
p7243
I2
sVmath
p7244
I21
sVkaus
p7245
I1
sVeswa
p7246
I1
sVuppa
p7247
I3
sVgaon
p7248
I1
sVpune
p7249
I1
sVammu
p7250
I3
sVmidh
p7251
I2
sVpunn
p7252
I2
sVkeer
p7253
I5
sVyarr
p7254
I1
sVyesw
p7255
I1
sVacco
p7256
I2
sVlohi
p7257
I2
sVsach
p7258
I3
sVrins
p7259
I1
sVcris
p7260
I2
sVjadi
p7261
I2
sVpotu
p7262
I2
sVjadh
p7263
I1
sVpotn
p7264
I1
sVimma
p7265
I2
sVanur
p7266
I3
sVanus
p7267
I14
sVanup
p7268
I8
sVgokh
p7269
I1
sVthav
p7270
I2
sVvine
p7271
I3
sVthay
p7272
I2
sValam
p7273
I2
sVupen
p7274
I2
sVthan
p7275
I8
sVgoku
p7276
I2
sVanum
p7277
I2
sVarut
p7278
I2
sVarus
p7279
I1
sVgoud
p7280
I7
sVgaya
p7281
I8
sVsuji
p7282
I5
sVarun
p7283
I23
sVarul
p7284
I2
sVvije
p7285
I1
sVbavi
p7286
I2
sVnazr
p7287
I1
sVsult
p7288
I1
sVrenj
p7289
I2
sVviji
p7290
I3
sVneel
p7291
I3
sVzuma
p7292
I2
sVneen
p7293
I2
sVrenu
p7294
I12
sVreny
p7295
I2
sVdasa
p7296
I3
sVkura
p7297
I1
sVdasd
p7298
I1
sVloke
p7299
I6
sVsuki
p7300
I2
sVaysh
p7301
I1
sVgaju
p7302
I2
sVjahn
p7303
I4
sVjaha
p7304
I2
sVtakk
p7305
I2
sVsuku
p7306
I4
sVbets
p7307
I2
sVsure
p7308
I33
sVvisw
p7309
I2
sVvisu
p7310
I2
sVishw
p7311
I1
sVdubh
p7312
I1
sVvish
p7313
I9
sVbles
p7314
I3
sVsury
p7315
I8
sVindu
p7316
I2
sVsali
p7317
I2
sVvika
p7318
I1
sVphil
p7319
I1
sVbade
p7320
I2
sVanga
p7321
I4
sVapoo
p7322
I3
sVindi
p7323
I2
sVsalu
p7324
I1
sVbadi
p7325
I3
sVraji
p7326
I4
sVrajk
p7327
I1
sVnagr
p7328
I1
sVrajo
p7329
I2
sVraja
p7330
I52
sVelav
p7331
I1
sVraje
p7332
I26
sVrajy
p7333
I2
sVelan
p7334
I2
sVnage
p7335
I6
sVkitt
p7336
I1
sVelak
p7337
I2
sVnago
p7338
I1
sVrajr
p7339
I1
sVraju
p7340
I17
sVshon
p7341
I2
sVhadi
p7342
I2
sVnala
p7343
I2
sVchha
p7344
I2
sVrash
p7345
I12
sVnall
p7346
I4
sVavan
p7347
I1
sVkesh
p7348
I1
sVpavi
p7349
I4
sVmuni
p7350
I1
sVabba
p7351
I1
sVmune
p7352
I4
sVpava
p7353
I4
sVsaip
p7354
I1
sVhire
p7355
I5
sVsdfg
p7356
I2
sVsdfd
p7357
I2
sVhele
p7358
I2
sVnish
p7359
I12
sVjasm
p7360
I1
sVlali
p7361
I10
sVjash
p7362
I1
sVlaya
p7363
I1
sVlala
p7364
I2
sVvarg
p7365
I17
sVgran
p7366
I2
sVgrac
p7367
I1
sVgout
p7368
I2
sVgour
p7369
I1
sVsiva
p7370
I27
sVpank
p7371
I3
sVmopu
p7372
I2
sVyash
p7373
I4
sVambr
p7374
I3
sVradh
p7375
I9
sVambi
p7376
I1
sVjith
p7377
I7
sVhaje
p7378
I2
sVjeth
p7379
I2
sVdomm
p7380
I2
sVdomn
p7381
I1
sVibra
p7382
I3
sVlava
p7383
I4
sVmond
p7384
I2
sVmans
p7385
I1
sVmant
p7386
I3
sVhitt
p7387
I2
sVmany
p7388
I2
sVramp
p7389
I2
sVramr
p7390
I1
sVmoni
p7391
I4
sVouse
p7392
I2
sVyamu
p7393
I3
sVmonu
p7394
I2
sVmand
p7395
I7
sVmane
p7396
I1
sVmang
p7397
I1
sVrame
p7398
I12
sVmanj
p7399
I32
sVramg
p7400
I1
sVrama
p7401
I26
sVramc
p7402
I1
sVvenu
p7403
I2
sVmrid
p7404
I1
sVukke
p7405
I2
sVchac
p7406
I6
sVanja
p7407
I11
sVpoly
p7408
I1
sVanto
p7409
I10
sVubai
p7410
I1
sVshin
p7411
I6
sVvenk
p7412
I32
sVmare
p7413
I1
sVsari
p7414
I9
sVmara
p7415
I2
sVdeep
p7416
I22
sVmaro
p7417
I3
sVsneh
p7418
I5
sVmari
p7419
I5
sVmark
p7420
I1
sVmart
p7421
I1
sVprab
p7422
I25
sVmarr
p7423
I1
sVarth
p7424
I3
sVsarv
p7425
I2
sVmary
p7426
I3
sVruba
p7427
I1
sVshif
p7428
I3
sVchal
p7429
I4
sVdhee
p7430
I2
sVruby
p7431
I1
sVramy
p7432
I14
sVmyde
p7433
I1
sVmega
p7434
I2
sVkavi
p7435
I9
sVramu
p7436
I4
sVkavy
p7437
I6
sVuggi
p7438
I1
sVsush
p7439
I5
sVsusm
p7440
I2
sVthum
p7441
I2
sVrams
p7442
I1
sVvira
p7443
I2
sVanik
p7444
I3
sVsami
p7445
I1
sVmana
p7446
I2
sVsamb
p7447
I1
sVsama
p7448
I5
sVanon
p7449
I2
sVsame
p7450
I2
sVsamy
p7451
I3
sVbage
p7452
I2
sVsamp
p7453
I3
sVnity
p7454
I2
sVsamv
p7455
I2
sVsamu
p7456
I6
sVrami
p7457
I3
sVanka
p7458
I2
sVball
p7459
I1
sVbalk
p7460
I2
sVbali
p7461
I5
sVsadh
p7462
I2
sVanki
p7463
I3
sVramk
p7464
I2
sVsree
p7465
I36
sVbala
p7466
I37
sVmani
p7467
I12
sVsoph
p7468
I3
sVvall
p7469
I2
sVmanm
p7470
I3
sVkaav
p7471
I1
sVkaar
p7472
I1
sVuttl
p7473
I2
sVmano
p7474
I9
sVdosa
p7475
I2
sVresh
p7476
I6
sVpaul
p7477
I14
sVvams
p7478
I5
sVtobi
p7479
I2
sVdais
p7480
I2
sVniru
p7481
I1
sVnirw
p7482
I1
sVvidh
p7483
I6
sVrosh
p7484
I2
sVrose
p7485
I2
sVraks
p7486
I2
sVvidy
p7487
I4
sVnath
p7488
I3
sVnaks
p7489
I3
sVnirm
p7490
I4
sVnata
p7491
I2
sVlaks
p7492
I26
sVvidv
p7493
I2
sVvidu
p7494
I2
sVvima
p7495
I1
sVjaka
p7496
I2
sVdars
p7497
I1
sVfath
p7498
I2
sVdabi
p7499
I2
sVnazl
p7500
I3
sVdari
p7501
I2
sVecre
p7502
I1
sVdesh
p7503
I1
sVdesi
p7504
I2
sVsumi
p7505
I2
sVdara
p7506
I1
sVdarg
p7507
I1
sVdesa
p7508
I3
sVsuma
p7509
I3
sVliki
p7510
I3
sVathi
p7511
I4
sVkula
p7512
I2
sVnami
p7513
I1
sVkulk
p7514
I12
sVpraj
p7515
I2
sVshed
p7516
I1
sVkolu
p7517
I1
sVmura
p7518
I15
sVhuss
p7519
I1
sVshej
p7520
I2
sVshek
p7521
I9
sVmurg
p7522
I2
sVshet
p7523
I13
sVsher
p7524
I1
sVmoha
p7525
I37
sVmurt
p7526
I8
sVmuru
p7527
I5
sViyer
p7528
I18
sVdagg
p7529
I2
sVrohi
p7530
I6
sVnazi
p7531
I1
sVyakk
p7532
I1
sVmoor
p7533
I3
sVmoot
p7534
I1
sVakhi
p7535
I2
sVsymo
p7536
I1
sVshna
p7537
I1
sVmith
p7538
I3
sVsaro
p7539
I1
sVusha
p7540
I5
sVasho
p7541
I3
sVashi
p7542
I1
sVjeer
p7543
I1
sVjeet
p7544
I2
sVasha
p7545
I3
sVjeev
p7546
I4
sVchop
p7547
I1
sVmuda
p7548
I4
sVchot
p7549
I1
sVchow
p7550
I3
sVmudi
p7551
I3
sVshre
p7552
I11
sVsara
p7553
I25
sVsume
p7554
I3
sVshra
p7555
I4
sVmeru
p7556
I2
sVshri
p7557
I7
sVshru
p7558
I5
sVshrr
p7559
I2
sVmera
p7560
I1
sVmerc
p7561
I1
sVyous
p7562
I3
sVjinc
p7563
I1
sVseba
p7564
I9
sVcath
p7565
I2
sVaart
p7566
I3
sVaaru
p7567
I1
sVjinu
p7568
I2
sVunan
p7569
I2
sVtina
p7570
I2
sVgore
p7571
I2
sVmich
p7572
I3
sVmadd
p7573
I2
sVraga
p7574
I3
sVmada
p7575
I2
sVragh
p7576
I16
sVpula
p7577
I2
sVmadh
p7578
I23
sVmadu
p7579
I2
sVragu
p7580
I1
sVumac
p7581
I1
sVdurg
p7582
I4
sVmask
p7583
I2
sVanji
p7584
I3
sVdura
p7585
I2
sVkuch
p7586
I1
sVklya
p7587
I2
sVyoga
p7588
I2
sVdabb
p7589
I2
sVboop
p7590
I1
sVoyce
p7591
I1
sVmast
p7592
I1
sVkrut
p7593
I2
sVpoor
p7594
I3
sVpooj
p7595
I8
sVprra
p7596
I2
sVilav
p7597
I1
sVsiju
p7598
I1
sVsast
p7599
I2
sVaaka
p7600
I2
sVmasa
p7601
I1
sVadar
p7602
I1
sVvadd
p7603
I1
sVpodc
p7604
I1
sVmasi
p7605
I1
sVsase
p7606
I2
sVkail
p7607
I2
sVadam
p7608
I2
sVyelm
p7609
I2
sVsasi
p7610
I6
sVyelk
p7611
I1
stp7612
Rp7613
sg48
I2515
sg49
F7543.5
sbs(g11
g3730
tp7614
g0
(g17
g2
Ntp7615
Rp7616
(dp7617
g21
F0.5
sg22
I1444
sg23
g24
((dp7618
Vck
p7619
I17
sVem
p7620
I3
sVab
p7621
I2
sVaf
p7622
I2
sVee
p7623
I113
sVah
p7624
I3
sVak
p7625
I6
sVaj
p7626
I2
sVam
p7627
I3
sVal
p7628
I57
sVan
p7629
I25
sVap
p7630
I2
sVas
p7631
I33
sVar
p7632
I77
sVey
p7633
I3
sVat
p7634
I2
sVin
p7635
I6
sVay
p7636
I8
sVaz
p7637
I3
sVen
p7638
I3
sVgi
p7639
I1
sVer
p7640
I22
sVkh
p7641
I4
sVni
p7642
I8
sVle
p7643
I2
sVty
p7644
I62
sVna
p7645
I12
sVha
p7646
I5
sVry
p7647
I40
sVli
p7648
I6
sVto
p7649
I5
sVav
p7650
I1
sVra
p7651
I16
sVth
p7652
I6
sVti
p7653
I9
sVnt
p7654
I2
sVri
p7655
I16
sVta
p7656
I28
sVyi
p7657
I1
sVru
p7658
I2
sVya
p7659
I38
sVbi
p7660
I2
sVit
p7661
I4
sVhi
p7662
I3
sVji
p7663
I5
sVdy
p7664
I1
sVda
p7665
I12
sVja
p7666
I3
sVon
p7667
I6
sVka
p7668
I5
sVma
p7669
I3
sVki
p7670
I2
sVno
p7671
I1
sVmi
p7672
I5
sVik
p7673
I6
sNI705
sVur
p7674
I3
sVul
p7675
I2
sVun
p7676
I3
sVel
p7677
I1
sVly
p7678
I13
sVor
p7679
I2
sVub
p7680
I1
stp7681
Rp7682
sg48
I202
sg49
F1545.0
sbs(g9
g845
tp7683
g0
(g17
g2
Ntp7684
Rp7685
(dp7686
g21
F0.5
sg22
I3075
sg23
g24
((dp7687
Vgu
p7688
I11
sVge
p7689
I2
sVga
p7690
I66
sVgo
p7691
I38
sVgi
p7692
I4
sVgh
p7693
I26
sVla
p7694
I19
sVlo
p7695
I16
sVtu
p7696
I3
sVtr
p7697
I19
sVli
p7698
I13
sVto
p7699
I3
sVav
p7700
I3
sVth
p7701
I27
sVti
p7702
I2
sVte
p7703
I4
sVta
p7704
I24
sVdo
p7705
I31
sVdh
p7706
I46
sVdi
p7707
I24
sVya
p7708
I4
sVde
p7709
I54
sVye
p7710
I6
sVda
p7711
I50
sVdu
p7712
I5
sVyu
p7713
I3
sVds
p7714
I1
sNI68
sVze
p7715
I1
sVza
p7716
I7
sVup
p7717
I10
sVvi
p7718
I26
sVba
p7719
I39
sVmu
p7720
I11
sVvs
p7721
I2
sVrd
p7722
I2
sVra
p7723
I137
sVro
p7724
I4
sVri
p7725
I11
sVrj
p7726
I3
sVrk
p7727
I1
sVbe
p7728
I4
sVbg
p7729
I2
sVjy
p7730
I3
sVwa
p7731
I38
sVbl
p7732
I1
sVju
p7733
I7
sVbo
p7734
I15
sVbh
p7735
I84
sVbu
p7736
I6
sVjo
p7737
I30
sVjh
p7738
I5
sVji
p7739
I11
sVjk
p7740
I2
sVje
p7741
I2
sVja
p7742
I98
sVom
p7743
I3
sVod
p7744
I1
sVoz
p7745
I5
sVot
p7746
I1
sVck
p7747
I1
sVch
p7748
I82
sVco
p7749
I3
sVca
p7750
I1
sVvb
p7751
I3
sVve
p7752
I3
sVpr
p7753
I44
sVpt
p7754
I1
sVpu
p7755
I11
sVpa
p7756
I379
sVpe
p7757
I1
sVph
p7758
I8
sVpi
p7759
I6
sVpo
p7760
I15
sVhu
p7761
I5
sVhi
p7762
I8
sVho
p7763
I3
sVha
p7764
I20
sVhe
p7765
I10
sVme
p7766
I78
sVma
p7767
I97
sVmb
p7768
I2
sVed
p7769
I2
sVut
p7770
I1
sVmo
p7771
I54
sVmn
p7772
I1
sVmi
p7773
I26
sVmh
p7774
I10
sVus
p7775
I1
sVum
p7776
I1
sVun
p7777
I3
sVmr
p7778
I2
sVvm
p7779
I2
sVud
p7780
I3
sVug
p7781
I3
sVaa
p7782
I4
sVva
p7783
I40
sVac
p7784
I4
sVab
p7785
I9
sVae
p7786
I1
sVad
p7787
I8
sVag
p7788
I6
sVah
p7789
I4
sVak
p7790
I13
sVaj
p7791
I3
sVam
p7792
I21
sVal
p7793
I3
sVan
p7794
I18
sVap
p7795
I1
sVvr
p7796
I2
sVar
p7797
I6
sVau
p7798
I2
sVat
p7799
I4
sVaw
p7800
I1
sVin
p7801
I2
sVay
p7802
I3
sVvy
p7803
I13
sVas
p7804
I8
sVni
p7805
I42
sVyo
p7806
I2
sVno
p7807
I1
sVna
p7808
I52
sVne
p7809
I12
sVny
p7810
I1
sVvo
p7811
I9
sVnr
p7812
I2
sVfu
p7813
I1
sVru
p7814
I4
sVfa
p7815
I4
sVka
p7816
I98
sVke
p7817
I10
sVss
p7818
I2
sVsr
p7819
I1
sVki
p7820
I12
sVkh
p7821
I48
sVko
p7822
I47
sVsu
p7823
I31
sVst
p7824
I2
sVks
p7825
I1
sVkr
p7826
I4
sVsi
p7827
I10
sVsh
p7828
I214
sVso
p7829
I54
sVsn
p7830
I6
sVku
p7831
I57
sVsa
p7832
I126
sVsw
p7833
I5
sVse
p7834
I7
stp7835
Rp7836
sg48
I285
sg49
F3217.5
sbs(g10
g3730
tp7837
g0
(g17
g2
Ntp7838
Rp7839
(dp7840
g21
F0.5
sg22
I4565
sg23
g24
((dp7841
Vvi
p7842
I1
sVny
p7843
I2
sVia
p7844
I31
sVgs
p7845
I1
sVva
p7846
I56
sVal
p7847
I175
sVce
p7848
I3
sVab
p7849
I6
sVng
p7850
I3
sVgi
p7851
I9
sVgh
p7852
I6
sVaj
p7853
I19
sVle
p7854
I4
sVag
p7855
I2
sVla
p7856
I48
sVll
p7857
I1
sVli
p7858
I6
sVto
p7859
I1
sVpa
p7860
I2
sVav
p7861
I25
sVth
p7862
I7
sVti
p7863
I30
sVkh
p7864
I93
sVte
p7865
I3
sVak
p7866
I17
sVta
p7867
I24
sVir
p7868
I14
sVan
p7869
I117
sVdi
p7870
I22
sVya
p7871
I66
sVde
p7872
I1
sVye
p7873
I2
sVht
p7874
I3
sVda
p7875
I7
sVhk
p7876
I2
sVhi
p7877
I47
sVha
p7878
I49
sVyu
p7879
I2
sVhe
p7880
I2
sVaq
p7881
I1
sVma
p7882
I216
sVut
p7883
I11
sVuv
p7884
I1
sVmi
p7885
I9
sVas
p7886
I8
sNI2304
sVur
p7887
I22
sVum
p7888
I14
sVul
p7889
I1
sVai
p7890
I3
sVun
p7891
I7
sVui
p7892
I14
sVue
p7893
I11
sVim
p7894
I4
sVly
p7895
I3
sVua
p7896
I3
sVat
p7897
I18
sVem
p7898
I23
sVel
p7899
I3
sVen
p7900
I50
sVad
p7901
I32
sVek
p7902
I7
sVaf
p7903
I4
sViq
p7904
I1
sVed
p7905
I21
sVis
p7906
I2
sVef
p7907
I1
sVam
p7908
I46
sVza
p7909
I1
sVeb
p7910
I1
sVah
p7911
I12
sVap
p7912
I9
sVik
p7913
I10
sVar
p7914
I94
sVey
p7915
I34
sVil
p7916
I6
sVez
p7917
I6
sVay
p7918
I20
sVet
p7919
I3
sVaz
p7920
I11
sVie
p7921
I1
sVep
p7922
I1
sVes
p7923
I2
sVer
p7924
I35
sVru
p7925
I1
sVnk
p7926
I2
sVin
p7927
I50
sVna
p7928
I55
sVnd
p7929
I4
sVry
p7930
I35
sVid
p7931
I11
sVre
p7932
I10
sVra
p7933
I71
sVit
p7934
I6
sVif
p7935
I6
sVnt
p7936
I7
sVri
p7937
I145
sVba
p7938
I3
sVwa
p7939
I1
sVni
p7940
I37
sVbh
p7941
I1
sVbi
p7942
I1
sVbu
p7943
I1
sVff
p7944
I3
sVze
p7945
I1
sVfi
p7946
I1
sVhu
p7947
I4
sVja
p7948
I15
sVoo
p7949
I2
sVon
p7950
I13
sVka
p7951
I30
sVok
p7952
I3
sVoj
p7953
I1
sVoi
p7954
I1
sVss
p7955
I1
sVki
p7956
I4
sVod
p7957
I1
sVsi
p7958
I1
sVsh
p7959
I13
sVse
p7960
I2
sVsa
p7961
I2
sVot
p7962
I2
sVor
p7963
I21
sVoq
p7964
I2
stp7965
Rp7966
sg48
I202
sg49
F4666.0
sbs(g8
g3066
tp7967
g0
(g17
g2
Ntp7968
Rp7969
(dp7970
g21
F0.5
sg22
I6286
sg23
g24
((dp7971
I1
I952
sI2
I148
sI3
I127
sI4
I405
sI5
I1009
sI6
I1011
sI7
I944
sI8
I501
sI9
I440
sI10
I220
sI11
I223
sI12
I124
sI13
I93
sI14
I37
sI15
I17
sI16
I12
sI17
I10
sI18
I9
sI19
I3
sI21
I1
stp7972
Rp7973
sg48
I20
sg49
F6296.0
sbs(g11
g1559
tp7974
g0
(g17
g2
Ntp7975
Rp7976
(dp7977
g21
F0.5
sg22
I1444
sg23
g24
((dp7978
Voni
p7979
I2
sVrti
p7980
I1
sVpta
p7981
I16
sVita
p7982
I4
sVyya
p7983
I4
sVley
p7984
I2
sVrty
p7985
I61
sVaru
p7986
I2
sVhal
p7987
I2
sVwaj
p7988
I2
sVhan
p7989
I3
sVjay
p7990
I2
sVyap
p7991
I2
sVyan
p7992
I2
sVyak
p7993
I1
sVjee
p7994
I109
sVski
p7995
I2
sVami
p7996
I3
sVyee
p7997
I2
sVoon
p7998
I6
sVgar
p7999
I4
sVhmi
p8000
I2
sVdar
p8001
I9
sVdas
p8002
I2
sVbub
p8003
I1
sVrji
p8004
I4
sVdin
p8005
I1
sVuly
p8006
I13
sViya
p8007
I2
sVtra
p8008
I1
sVait
p8009
I2
sVder
p8010
I10
sNI981
sVuli
p8011
I2
sVjya
p8012
I2
sVban
p8013
I1
sVshi
p8014
I1
sVful
p8015
I2
sVini
p8016
I2
sVbhi
p8017
I2
sVnab
p8018
I1
sVana
p8019
I7
sVran
p8020
I2
sVary
p8021
I2
sVnji
p8022
I1
sVani
p8023
I2
sVino
p8024
I1
sVlya
p8025
I1
sVari
p8026
I6
sVkha
p8027
I2
sVick
p8028
I17
sVmik
p8029
I4
sVabi
p8030
I2
sVain
p8031
I1
sVrya
p8032
I19
sVeen
p8033
I1
sVaja
p8034
I1
sVnik
p8035
I2
sVkar
p8036
I15
sVika
p8037
I3
sVnta
p8038
I4
sVyay
p8039
I6
sVmal
p8040
I2
sVman
p8041
I8
sVhna
p8042
I4
sVagi
p8043
I1
sVata
p8044
I1
sVuri
p8045
I1
sVath
p8046
I6
sVati
p8047
I4
sVndy
p8048
I1
sVeta
p8049
I1
sVdra
p8050
I3
sVeti
p8051
I2
sVury
p8052
I36
sVtha
p8053
I2
stp8054
Rp8055
sg48
I549
sg49
F1718.5
sbs(g12
g60
tp8056
g0
(g17
g2
Ntp8057
Rp8058
(dp8059
g21
F0.5
sg22
I1494
sg23
g24
((dp8060
Vkaty
p8061
I2
sVshor
p8062
I2
sVnagr
p8063
I2
sVbhel
p8064
I1
sVnagp
p8065
I4
sVraja
p8066
I4
sVbehl
p8067
I1
sVsagg
p8068
I2
sVkath
p8069
I2
sVbaja
p8070
I3
sVsuni
p8071
I2
sVsunn
p8072
I1
sVgand
p8073
I3
sVrajp
p8074
I6
sVsung
p8075
I1
sVrajv
p8076
I3
sVgula
p8077
I2
sVchha
p8078
I2
sVnayy
p8079
I3
sVasgk
p8080
I2
sVchhi
p8081
I2
sVrash
p8082
I2
sVmigl
p8083
I1
sVjoll
p8084
I2
sVkuma
p8085
I27
sVtirt
p8086
I1
sVmend
p8087
I2
sVguly
p8088
I1
sVsona
p8089
I4
sVvash
p8090
I2
sVdhin
p8091
I5
sVrish
p8092
I1
sVmoud
p8093
I2
sVsoni
p8094
I9
sVhema
p8095
I2
sVtute
p8096
I4
sVgeet
p8097
I4
sVjaco
p8098
I2
sVsony
p8099
I1
sVverm
p8100
I14
sVpriy
p8101
I5
sVsant
p8102
I1
sVjasm
p8103
I2
sVlali
p8104
I2
sVsans
p8105
I1
sVmaha
p8106
I4
sVgaur
p8107
I2
sVsand
p8108
I14
sVanan
p8109
I4
sVjasw
p8110
I2
sVpard
p8111
I2
sVarya
p8112
I1
sVsanj
p8113
I3
sVgaub
p8114
I2
sVrach
p8115
I1
sVvini
p8116
I1
sVchet
p8117
I2
sVratr
p8118
I1
sVvina
p8119
I2
sVsigh
p8120
I1
sVbaks
p8121
I1
sVritu
p8122
I2
sVrath
p8123
I2
sVsaig
p8124
I2
sVaror
p8125
I47
sVgunj
p8126
I1
sVsain
p8127
I10
sVnanc
p8128
I1
sVnand
p8129
I2
sVtewa
p8130
I1
sVjite
p8131
I2
sVgaga
p8132
I1
sVriti
p8133
I2
sVsehg
p8134
I8
sVishn
p8135
I1
sVsapp
p8136
I2
sVbird
p8137
I2
sVkamb
p8138
I1
sVkama
p8139
I6
sVrimp
p8140
I1
sVanch
p8141
I2
sVjati
p8142
I2
sVsing
p8143
I242
sVmanp
p8144
I1
sVbrar
p8145
I2
sVjamw
p8146
I1
sVagga
p8147
I6
sVmoni
p8148
I1
sVsawh
p8149
I2
sVmanc
p8150
I2
sVmand
p8151
I1
sVrahe
p8152
I2
sVmang
p8153
I2
sVhkau
p8154
I1
sVrekh
p8155
I3
sVramg
p8156
I1
sVrama
p8157
I4
sVmann
p8158
I2
sVhima
p8159
I1
sVgosw
p8160
I1
sVprut
p8161
I1
sVdutt
p8162
I3
sVvipa
p8163
I1
sVpath
p8164
I1
sVgupt
p8165
I10
sVkhan
p8166
I2
sVmara
p8167
I1
sVkhal
p8168
I1
sVpree
p8169
I5
sVatwa
p8170
I3
sVcrab
p8171
I1
sVsokh
p8172
I3
sVkhar
p8173
I2
sVsaks
p8174
I2
sVrick
p8175
I2
sVchug
p8176
I2
sVbabb
p8177
I5
sVluba
p8178
I1
sVbabi
p8179
I1
sVneha
p8180
I2
sVreha
p8181
I2
sVkoma
p8182
I1
sVmuke
p8183
I1
sVvand
p8184
I2
sVkoth
p8185
I2
sVaffe
p8186
I1
sVashi
p8187
I1
sVmeen
p8188
I4
sVamri
p8189
I2
sVjpsi
p8190
I2
sVtane
p8191
I3
sVtand
p8192
I2
sVsabh
p8193
I2
sVabot
p8194
I1
sVmalh
p8195
I11
sVtanu
p8196
I2
sValis
p8197
I1
sVpahu
p8198
I2
sVsude
p8199
I2
sVmehm
p8200
I1
sVpawa
p8201
I2
sVrakh
p8202
I2
sVkohl
p8203
I4
sVvirm
p8204
I1
sVkukr
p8205
I1
sVmeht
p8206
I7
sVmehr
p8207
I7
sVarsh
p8208
I2
sVsikk
p8209
I1
sVaany
p8210
I2
sVbagr
p8211
I2
sVgurp
p8212
I1
sVgurv
p8213
I2
sVdhim
p8214
I2
sVguru
p8215
I3
sVnaru
p8216
I3
sVvira
p8217
I2
sVniki
p8218
I1
sVsame
p8219
I1
sVgurb
p8220
I1
sVpurb
p8221
I1
sVbroc
p8222
I2
sVpuri
p8223
I3
sVshai
p8224
I1
sVgurn
p8225
I1
sVgurl
p8226
I2
sVshar
p8227
I43
sVbawe
p8228
I1
sVanki
p8229
I2
sVmani
p8230
I1
sVluth
p8231
I4
sVgrov
p8232
I4
sVtalw
p8233
I4
sVmank
p8234
I1
sVgogn
p8235
I1
sVvikr
p8236
I2
sVriya
p8237
I1
sVseth
p8238
I4
sVseti
p8239
I2
sVmanm
p8240
I2
sVjain
p8241
I7
sVsamb
p8242
I2
sVamit
p8243
I7
sVmano
p8244
I2
sVjaid
p8245
I1
sVgora
p8246
I3
sVkash
p8247
I2
sVsimr
p8248
I1
sVsimp
p8249
I2
sVsood
p8250
I5
sVbhag
p8251
I2
sVkalr
p8252
I9
sVpane
p8253
I1
sVpand
p8254
I1
sVsimi
p8255
I2
sVvohr
p8256
I2
sVvari
p8257
I1
sVpann
p8258
I1
sVlakh
p8259
I3
sVprat
p8260
I2
sVtuli
p8261
I3
sVkhur
p8262
I14
sVjosh
p8263
I6
sVdhan
p8264
I2
sVdham
p8265
I3
sVdhal
p8266
I3
sVlate
p8267
I6
sVprab
p8268
I2
sVkheh
p8269
I2
sVgarg
p8270
I4
sVpugg
p8271
I1
sVbagg
p8272
I2
sVkour
p8273
I5
sVmaya
p8274
I4
sVbans
p8275
I4
sVnish
p8276
I3
sVwali
p8277
I5
sVahuj
p8278
I7
sVgamb
p8279
I2
sVcvbn
p8280
I2
sVthet
p8281
I1
sVbani
p8282
I4
sVkhus
p8283
I2
sVkira
p8284
I3
sVjhin
p8285
I1
sNI29
sVsidh
p8286
I1
sVarju
p8287
I1
sVsidd
p8288
I3
sVhark
p8289
I3
sVwaso
p8290
I2
sVnavi
p8291
I1
sVkang
p8292
I1
sVkand
p8293
I1
sVadla
p8294
I2
sVnavn
p8295
I2
sVpall
p8296
I2
sVdhir
p8297
I1
sVpala
p8298
I1
sVkanu
p8299
I1
sVmohi
p8300
I4
sVharp
p8301
I2
sVmatt
p8302
I2
sVmoon
p8303
I3
sVjyot
p8304
I1
sVprof
p8305
I1
sVniti
p8306
I2
sVmath
p8307
I1
sVkhos
p8308
I3
sVbasr
p8309
I2
sVkaus
p8310
I1
sVkaur
p8311
I161
sVmitt
p8312
I4
sVnidh
p8313
I2
sVober
p8314
I5
sVuppa
p8315
I1
sVsrih
p8316
I2
sVsarn
p8317
I2
sVbahl
p8318
I3
sVsaha
p8319
I1
sVdugg
p8320
I1
sVsahn
p8321
I2
sVpunj
p8322
I4
sVjass
p8323
I5
sVchop
p8324
I15
sVjasp
p8325
I2
sVchow
p8326
I2
sVdine
p8327
I4
sVrana
p8328
I1
sVgarh
p8329
I2
sVgari
p8330
I4
sVbham
p8331
I2
sVbhal
p8332
I2
sVkoch
p8333
I2
sVrani
p8334
I5
sVsach
p8335
I5
sVbati
p8336
I2
sVranj
p8337
I2
sVbhat
p8338
I9
sVbatt
p8339
I1
sVwadh
p8340
I8
sVbatr
p8341
I3
sVbhas
p8342
I5
sVbhar
p8343
I7
sVkapo
p8344
I14
sVmiss
p8345
I6
sVdube
p8346
I1
sVharj
p8347
I1
sVjind
p8348
I2
sVmamt
p8349
I2
sVmarw
p8350
I4
sVpabb
p8351
I2
sVjanj
p8352
I1
sVsian
p8353
I2
sVjohn
p8354
I2
sVdogr
p8355
I3
sVjagj
p8356
I1
sVthar
p8357
I1
sVthap
p8358
I2
sVtina
p8359
I1
sVsime
p8360
I1
sVjagg
p8361
I2
sVpari
p8362
I1
sVesha
p8363
I1
sVpiya
p8364
I1
sVgain
p8365
I1
sVthak
p8366
I6
sVtreh
p8367
I2
sVbudh
p8368
I2
sVattr
p8369
I1
sVmada
p8370
I4
sVsupr
p8371
I1
sVkhat
p8372
I6
sVarne
p8373
I1
sVvick
p8374
I1
sVdang
p8375
I2
sVgoya
p8376
I10
sVshik
p8377
I1
sVanja
p8378
I1
sVjhan
p8379
I3
sVdili
p8380
I1
sVchad
p8381
I1
sVmino
p8382
I1
sVmina
p8383
I1
sVchan
p8384
I3
sVdeep
p8385
I5
sVkara
p8386
I2
sVchaw
p8387
I11
sVrahu
p8388
I3
sVchau
p8389
I2
sVseem
p8390
I2
sVshiv
p8391
I5
sVshiw
p8392
I2
sVkarl
p8393
I2
sVghos
p8394
I1
sVyoge
p8395
I1
sVsukh
p8396
I3
sVkirt
p8397
I3
sVleen
p8398
I2
sVmass
p8399
I2
sVkayt
p8400
I2
sVgill
p8401
I10
sVsiso
p8402
I2
sVsure
p8403
I2
sVgujr
p8404
I1
sVaman
p8405
I3
sVjune
p8406
I1
sVansh
p8407
I2
sVkhok
p8408
I4
sVpooj
p8409
I3
sVvish
p8410
I6
sVbadw
p8411
I1
sVniha
p8412
I2
sVsalo
p8413
I2
sVsala
p8414
I2
sVbedi
p8415
I3
sVsush
p8416
I2
sVaksh
p8417
I1
sVsalu
p8418
I3
sVinde
p8419
I1
sVsekh
p8420
I4
sVinda
p8421
I2
sVsoha
p8422
I2
sVgund
p8423
I2
sVgaba
p8424
I3
stp8425
Rp8426
sg48
I2515
sg49
F2751.5
sbs(g8
g15
tp8427
g0
(g17
g2
Ntp8428
Rp8429
(dp8430
g21
F0.5
sg22
I6286
sg23
g24
((dp8431
g26
I22
sg27
I1067
sg56
I3
sg28
I12
sg29
I113
sg30
I94
sg31
I6
sg3053
I11
sg32
I742
sg33
I419
sg34
I46
sg35
I80
sg36
I102
sg37
I141
sNI1632
sg38
I586
sg3054
I2
sg39
I40
sg40
I85
sg41
I571
sg42
I189
sg43
I37
sg57
I11
sg44
I38
sg45
I227
sg3063
I1
sg3055
I9
stp8432
Rp8433
sg48
I27
sg49
F6299.5
sbs(g8
g322
tp8434
g0
(g17
g2
Ntp8435
Rp8436
(dp8437
g21
F0.5
sg22
I6286
sg23
g24
((dp8438
Vroh
p8439
I6
sValo
p8440
I2
sVall
p8441
I4
sVron
p8442
I1
sVali
p8443
I10
sVale
p8444
I6
sVrod
p8445
I5
sVroj
p8446
I1
sVala
p8447
I2
sVroy
p8448
I2
sVros
p8449
I4
sValp
p8450
I2
sVvet
p8451
I3
sVgad
p8452
I6
sVver
p8453
I1
sVaug
p8454
I3
sVrek
p8455
I9
sVroo
p8456
I6
sVved
p8457
I3
sVvee
p8458
I14
sVven
p8459
I34
sVren
p8460
I16
sVvel
p8461
I5
sVrag
p8462
I20
sVedi
p8463
I2
sVfar
p8464
I2
sVsca
p8465
I4
sVfat
p8466
I2
sVfak
p8467
I2
sVfai
p8468
I2
sVrec
p8469
I1
sVava
p8470
I1
sVdil
p8471
I5
sVdin
p8472
I7
sVrea
p8473
I2
sVgud
p8474
I5
sVeva
p8475
I1
sVupe
p8476
I2
sVgun
p8477
I6
sVhyn
p8478
I1
sVgur
p8479
I7
sVgup
p8480
I2
sVdix
p8481
I1
sVdiv
p8482
I16
sVree
p8483
I3
sVdip
p8484
I2
sVupp
p8485
I3
sVtej
p8486
I10
sVtee
p8487
I1
sVtes
p8488
I1
sVsug
p8489
I8
sVabb
p8490
I1
sVsud
p8491
I21
sVabd
p8492
I8
sVsub
p8493
I19
sVneh
p8494
I3
sVabh
p8495
I3
sVabi
p8496
I7
sVsum
p8497
I8
sVnee
p8498
I7
sVsuk
p8499
I8
sVkur
p8500
I12
sVsuh
p8501
I2
sVkun
p8502
I10
sVkum
p8503
I205
sVkul
p8504
I14
sVsus
p8505
I11
sVsur
p8506
I45
sVsup
p8507
I2
sVnet
p8508
I3
sVkuc
p8509
I1
sVmee
p8510
I10
sVmeg
p8511
I8
sVlee
p8512
I4
sVmel
p8513
I2
sVlek
p8514
I2
sVmer
p8515
I4
sVmey
p8516
I1
sVglo
p8517
I1
sVbhu
p8518
I5
sVbos
p8519
I1
sVdee
p8520
I22
sVakk
p8521
I1
sVaki
p8522
I2
sVakh
p8523
I2
sVbom
p8524
I1
sVboo
p8525
I1
sVbod
p8526
I1
sVjos
p8527
I39
sVvib
p8528
I3
sVvic
p8529
I1
sVvig
p8530
I8
sVvid
p8531
I14
sVvij
p8532
I45
sVvik
p8533
I2
sVvin
p8534
I35
sVvil
p8535
I2
sVvim
p8536
I1
sVvir
p8537
I2
sVvis
p8538
I13
sVipp
p8539
I1
sVviv
p8540
I1
sVapo
p8541
I3
sVbri
p8542
I1
sVapa
p8543
I1
sVcha
p8544
I68
sVche
p8545
I15
sVchh
p8546
I2
sVchi
p8547
I15
sVfel
p8548
I1
sVfem
p8549
I1
sVmsr
p8550
I2
sVush
p8551
I5
sVchr
p8552
I3
sVfer
p8553
I2
sVays
p8554
I1
sVoom
p8555
I1
sVshr
p8556
I29
sVerr
p8557
I1
sVers
p8558
I2
sVdes
p8559
I6
sVdev
p8560
I33
sVcat
p8561
I2
sVdei
p8562
I2
sVflo
p8563
I2
sVibr
p8564
I3
sVkly
p8565
I2
sVsri
p8566
I81
sVtar
p8567
I1
sVraj
p8568
I129
sVtad
p8569
I2
sVspa
p8570
I2
sVtan
p8571
I1
sVtak
p8572
I2
sVsir
p8573
I2
sVsiv
p8574
I27
sVsit
p8575
I2
sVhon
p8576
I1
sVenn
p8577
I1
sVeno
p8578
I1
sVsib
p8579
I2
sVsid
p8580
I10
sVsij
p8581
I1
sVoyc
p8582
I1
sVsin
p8583
I16
sVsim
p8584
I2
sVsil
p8585
I4
sVlal
p8586
I13
sVmas
p8587
I5
sVsne
p8588
I5
sVmat
p8589
I22
sVlak
p8590
I31
sVmay
p8591
I2
sVlan
p8592
I2
sVlax
p8593
I7
sVmad
p8594
I29
sVlat
p8595
I39
sVmah
p8596
I27
sVlav
p8597
I4
sVlaw
p8598
I3
sVmam
p8599
I2
sVmal
p8600
I20
sVman
p8601
I75
sVpav
p8602
I8
sVgha
p8603
I1
sVith
p8604
I2
sVvmb
p8605
I1
sVapu
p8606
I1
sVfir
p8607
I1
sVjib
p8608
I1
sVjin
p8609
I3
sVcle
p8610
I1
sVjil
p8611
I1
sVbyr
p8612
I1
sVjit
p8613
I7
sVjis
p8614
I1
sVbya
p8615
I2
sVdad
p8616
I2
sVnom
p8617
I2
sVdag
p8618
I2
sVdab
p8619
I4
sVdam
p8620
I4
sVdan
p8621
I4
sVdai
p8622
I2
sVdak
p8623
I1
sVdat
p8624
I1
sVdav
p8625
I13
sVdap
p8626
I2
sVdar
p8627
I5
sVdas
p8628
I9
sVnou
p8629
I3
sVkka
p8630
I1
sVday
p8631
I3
sNI1100
sVnik
p8632
I7
sVnih
p8633
I1
sVdia
p8634
I1
sVmar
p8635
I17
sVous
p8636
I2
sVgom
p8637
I2
sVgol
p8638
I2
sVgok
p8639
I3
sVsha
p8640
I75
sVres
p8641
I6
sVrev
p8642
I6
sVret
p8643
I1
sVrej
p8644
I2
sVdso
p8645
I2
sVreh
p8646
I2
sVgoy
p8647
I1
sVrem
p8648
I4
sVgou
p8649
I10
sVaja
p8650
I1
sVgow
p8651
I27
sVgov
p8652
I8
sVgop
p8653
I10
sVred
p8654
I65
sVgor
p8655
I2
sVpul
p8656
I2
sVpun
p8657
I3
sVasw
p8658
I6
sVpuj
p8659
I3
sVpud
p8660
I1
sVoru
p8661
I2
sVecr
p8662
I1
sVasi
p8663
I1
sVash
p8664
I13
sVpur
p8665
I12
sVpus
p8666
I4
sVbam
p8667
I1
sViss
p8668
I3
sVatl
p8669
I1
sVvam
p8670
I5
sVath
p8671
I4
sVyuv
p8672
I12
sVish
p8673
I2
sVism
p8674
I1
sVlay
p8675
I1
sVona
p8676
I1
sVzab
p8677
I2
sVmak
p8678
I1
sVjer
p8679
I2
sVjes
p8680
I1
sVkok
p8681
I1
sVkom
p8682
I1
sVkol
p8683
I1
sVjet
p8684
I2
sVkon
p8685
I3
sVjey
p8686
I2
sVkod
p8687
I4
sVton
p8688
I2
sVjee
p8689
I7
sVtob
p8690
I2
sVukk
p8691
I2
sVlas
p8692
I2
sVkou
p8693
I4
sVjeo
p8694
I1
sVhug
p8695
I1
sVudu
p8696
I2
sVhym
p8697
I1
sVvar
p8698
I30
sVuda
p8699
I3
sVhus
p8700
I1
sVeps
p8701
I2
sVste
p8702
I8
sVkor
p8703
I3
sVbel
p8704
I5
sVjen
p8705
I4
sVbed
p8706
I2
sVkot
p8707
I11
sVbez
p8708
I2
sVaat
p8709
I2
sVaas
p8710
I2
sVaar
p8711
I4
sVber
p8712
I1
sVbet
p8713
I2
sVraf
p8714
I2
sVane
p8715
I2
sVrad
p8716
I9
sVang
p8717
I7
sVpra
p8718
I133
sVrac
p8719
I4
sVsam
p8720
I28
sVsal
p8721
I3
sVran
p8722
I21
sVrao
p8723
I22
sVann
p8724
I10
sVano
p8725
I4
sVpri
p8726
I45
sVrak
p8727
I10
sVrah
p8728
I13
sVsad
p8729
I4
sVant
p8730
I10
sVanu
p8731
I39
sVrat
p8732
I11
sVanw
p8733
I2
sVras
p8734
I12
sVrap
p8735
I1
sVari
p8736
I3
sVsas
p8737
I10
sVsar
p8738
I37
sVsap
p8739
I2
sVraz
p8740
I2
sVsav
p8741
I6
sVsau
p8742
I2
sVsat
p8743
I33
sVlig
p8744
I2
sVmin
p8745
I3
sVmic
p8746
I3
sVmid
p8747
I2
sVlij
p8748
I4
sVlik
p8749
I3
sVliv
p8750
I2
sVmis
p8751
I1
sVmir
p8752
I2
sVliy
p8753
I2
sVkaa
p8754
I2
sVkad
p8755
I10
sVkak
p8756
I4
sVkaj
p8757
I1
sVkai
p8758
I2
sVkan
p8759
I34
sVkam
p8760
I13
sVkal
p8761
I31
sVkas
p8762
I6
sVkar
p8763
I43
sVkav
p8764
I17
sVkau
p8765
I1
sVkat
p8766
I2
sVkay
p8767
I2
sVnek
p8768
I2
sVdok
p8769
I2
sVdon
p8770
I1
sVdom
p8771
I3
sVsdf
p8772
I4
sVmri
p8773
I1
sVsun
p8774
I38
sVdor
p8775
I1
sVdos
p8776
I2
sVkut
p8777
I5
sVtri
p8778
I2
sVugg
p8779
I1
sVsuj
p8780
I15
sVjay
p8781
I28
sVjav
p8782
I1
sVjaw
p8783
I1
sVabr
p8784
I11
sVjan
p8785
I14
sVjam
p8786
I3
sVhri
p8787
I1
sVjak
p8788
I2
sVjah
p8789
I6
sVjai
p8790
I4
sVjaf
p8791
I2
sVjag
p8792
I8
sVjad
p8793
I3
sVjab
p8794
I1
sVjac
p8795
I6
sVimm
p8796
I2
sVhir
p8797
I5
sVhit
p8798
I2
sVgee
p8799
I7
sVgeo
p8800
I16
sVhim
p8801
I5
sVbav
p8802
I2
sVbat
p8803
I3
sVbas
p8804
I11
sVshw
p8805
I7
sVshy
p8806
I3
sVbag
p8807
I4
sVbad
p8808
I5
sVbab
p8809
I21
sVshe
p8810
I29
sVshg
p8811
I2
sVban
p8812
I7
sVshi
p8813
I31
sVbal
p8814
I46
sVcri
p8815
I2
sVbak
p8816
I4
sVshn
p8817
I1
sVsho
p8818
I5
sVarp
p8819
I2
sVart
p8820
I3
sVaru
p8821
I28
sVarv
p8822
I1
sVary
p8823
I3
sVara
p8824
I3
sVsee
p8825
I8
sVarc
p8826
I16
sVseb
p8827
I9
sVsen
p8828
I5
sVarj
p8829
I4
sVsel
p8830
I29
sVsek
p8831
I6
sVmut
p8832
I16
sVand
p8833
I2
sVmus
p8834
I2
sVmur
p8835
I32
sVvas
p8836
I11
sVmud
p8837
I7
sVluc
p8838
I2
sVlud
p8839
I2
sVmub
p8840
I4
sVmul
p8841
I1
sVmun
p8842
I5
sVmuh
p8843
I5
sVmuk
p8844
I2
sVkem
p8845
I3
sVmen
p8846
I14
sVomk
p8847
I1
sVjoy
p8848
I7
sVkee
p8849
I5
sVked
p8850
I2
sVtul
p8851
I5
sVtum
p8852
I2
sVjoh
p8853
I14
sVkes
p8854
I1
sVker
p8855
I1
sVbee
p8856
I4
sVell
p8857
I4
sVila
p8858
I1
sVuna
p8859
I2
sVvus
p8860
I2
sVunn
p8861
I10
sVjoe
p8862
I5
sVpre
p8863
I22
sVsul
p8864
I1
sVsaj
p8865
I10
sVjij
p8866
I1
sVpot
p8867
I3
sVpou
p8868
I1
sVsai
p8869
I18
sVpon
p8870
I2
sVpoo
p8871
I13
sVpol
p8872
I1
sVsah
p8873
I7
sVrab
p8874
I2
sVpod
p8875
I1
sVana
p8876
I22
sVfra
p8877
I7
sVbho
p8878
I1
sVdun
p8879
I2
sVyaz
p8880
I1
sVswa
p8881
I30
sVyat
p8882
I3
sVdub
p8883
I1
sVraa
p8884
I3
sVswe
p8885
I12
sVyas
p8886
I4
sVyar
p8887
I1
sVyam
p8888
I5
sVbha
p8889
I56
sVyak
p8890
I1
sVsab
p8891
I2
sVyad
p8892
I7
sVdur
p8893
I6
sVsaa
p8894
I1
sVram
p8895
I74
sVgay
p8896
I8
sVbme
p8897
I1
sVgav
p8898
I1
sVgau
p8899
I3
sVgat
p8900
I3
sVani
p8901
I18
sVgao
p8902
I1
sVgan
p8903
I19
sVgal
p8904
I2
sVanj
p8905
I14
sVrai
p8906
I2
sVgab
p8907
I4
sViye
p8908
I18
sVrav
p8909
I36
sVsak
p8910
I8
sVmla
p8911
I2
sViya
p8912
I1
sVsay
p8913
I1
sVais
p8914
I10
sVank
p8915
I5
sVadi
p8916
I5
sVbir
p8917
I3
sVami
p8918
I7
sVriz
p8919
I4
sVvon
p8920
I2
sVprr
p8921
I2
sVris
p8922
I1
sVrin
p8923
I1
sVrij
p8924
I2
sVavi
p8925
I4
sVamm
p8926
I3
sVric
p8927
I2
sVpar
p8928
I18
sVpas
p8929
I7
sVpat
p8930
I30
sVpau
p8931
I14
sVdhi
p8932
I6
sVpry
p8933
I2
sVdhe
p8934
I2
sVdha
p8935
I14
sVpad
p8936
I4
sVray
p8937
I1
sVpal
p8938
I10
sVpam
p8939
I3
sVpan
p8940
I14
sVnij
p8941
I1
sVkiz
p8942
I2
sVphi
p8943
I1
sVamb
p8944
I4
sVnim
p8945
I1
sVkis
p8946
I3
sVkir
p8947
I23
sVnia
p8948
I2
sVsym
p8949
I1
sVkit
p8950
I1
sVnir
p8951
I6
sVnis
p8952
I15
sVsfk
p8953
I1
sVniv
p8954
I1
sVnit
p8955
I9
sVthu
p8956
I2
sVble
p8957
I3
sVthr
p8958
I2
sVtho
p8959
I13
sVyog
p8960
I2
sVlog
p8961
I1
sVthi
p8962
I4
sVsan
p8963
I83
sVthe
p8964
I6
sVlin
p8965
I2
sVtha
p8966
I13
sVyel
p8967
I3
sVyes
p8968
I1
sVhaj
p8969
I2
sVham
p8970
I1
sVhan
p8971
I1
sVhaa
p8972
I2
sVela
p8973
I5
sVhad
p8974
I2
sVjas
p8975
I2
sVhaf
p8976
I3
sVada
p8977
I3
sVhar
p8978
I30
sVhas
p8979
I1
sVadh
p8980
I3
sVelu
p8981
I2
sVbin
p8982
I2
sVbil
p8983
I5
sVbij
p8984
I2
sVbik
p8985
I2
sVbih
p8986
I1
sVama
p8987
I11
sVmor
p8988
I1
sVbid
p8989
I1
sVmop
p8990
I2
sVbib
p8991
I2
sVmou
p8992
I1
sVmot
p8993
I2
sVsac
p8994
I3
sVmoh
p8995
I39
sVmoo
p8996
I4
sVmon
p8997
I8
sVmol
p8998
I1
sVams
p8999
I2
sVamr
p9000
I2
sVamu
p9001
I3
sVmod
p9002
I4
sVmit
p9003
I3
sVjyo
p9004
I12
sVgjb
p9005
I2
sVmup
p9006
I1
sVoli
p9007
I2
sVesw
p9008
I1
sVest
p9009
I2
sVpet
p9010
I7
sVper
p9011
I7
sVume
p9012
I2
sVpen
p9013
I2
sVuma
p9014
I2
sVesa
p9015
I1
sVpee
p9016
I3
sVpeg
p9017
I2
sVesh
p9018
I1
sVrub
p9019
I2
sVsag
p9020
I8
sVrud
p9021
I1
sVtya
p9022
I2
sVdcr
p9023
I2
sVdum
p9024
I1
sVacc
p9025
I2
sVsra
p9026
I6
sVsre
p9027
I36
sVach
p9028
I7
sVkru
p9029
I2
sVkri
p9030
I48
sVsru
p9031
I7
sVkra
p9032
I1
sVzum
p9033
I2
sVsog
p9034
I1
sVxyz
p9035
I1
sVsoj
p9036
I2
sVsom
p9037
I15
sVsol
p9038
I1
sVsoo
p9039
I4
sVson
p9040
I10
sVsop
p9041
I3
sVsor
p9042
I2
sVsou
p9043
I9
sVxav
p9044
I2
sVsow
p9045
I9
sVcho
p9046
I5
sVvah
p9047
I2
sVvai
p9048
I7
sVvan
p9049
I13
sVgir
p9050
I10
sVval
p9051
I2
sVyal
p9052
I5
sVlok
p9053
I9
sVloh
p9054
I2
sVvad
p9055
I4
sVheg
p9056
I3
sVhea
p9057
I2
sVheb
p9058
I4
sVlou
p9059
I1
sVhel
p9060
I2
sVhem
p9061
I7
sVhej
p9062
I2
sVbus
p9063
I2
sVoil
p9064
I2
sVbuh
p9065
I2
sVbun
p9066
I1
sVear
p9067
I1
sVyag
p9068
I2
sVazi
p9069
I2
sVsya
p9070
I7
sVutt
p9071
I2
sVnnn
p9072
I2
sVpil
p9073
I19
sVaak
p9074
I2
sVpin
p9075
I1
sVpiy
p9076
I1
sVmyl
p9077
I1
sVind
p9078
I4
sVkha
p9079
I2
sVmyd
p9080
I1
sVinb
p9081
I1
sVnac
p9082
I2
sVnaa
p9083
I1
sVnag
p9084
I39
sVnad
p9085
I5
sVtit
p9086
I2
sVnak
p9087
I3
sVnai
p9088
I73
sVnan
p9089
I14
sVnal
p9090
I6
sVnam
p9091
I7
sVnar
p9092
I32
sVtin
p9093
I4
sVnav
p9094
I16
sVnaw
p9095
I1
sVnat
p9096
I5
sVgra
p9097
I3
sVnaz
p9098
I5
sVgro
p9099
I2
sVyou
p9100
I3
sVnay
p9101
I7
sVurs
p9102
I2
sVuba
p9103
I1
sVaji
p9104
I1
sVnic
p9105
I2
sVgaj
p9106
I4
stp9107
Rp9108
sg48
I1153
sg49
F6862.5
sbs(g8
g50
tp9109
g0
(g17
g2
Ntp9110
Rp9111
(dp9112
g21
F0.5
sg22
I6286
sg23
g24
((dp9113
g27
I413
sg56
I159
sg28
I270
sg29
I42
sg30
I226
sg31
I239
sg3053
I22
sg32
I40
sg33
I107
sg34
I664
sg35
I217
sg36
I499
sg37
I151
sg26
I13
sg38
I337
sg39
I485
sg40
I1227
sg41
I623
sg42
I44
sg43
I106
sg44
I342
sg45
I53
sg3063
I3
sg3055
I4
stp9114
Rp9115
sg48
I26
sg49
F6299.0
sbssS'_label_probdist'
p9116
g0
(g17
g2
Ntp9117
Rp9118
(dp9119
g21
F0.5
sg22
I16864
sg23
g24
((dp9120
g8
I6286
sg9
I3075
sg10
I4565
sg11
I1444
sg12
I1494
stp9121
Rp9122
sg48
I5
sg49
F16866.5
sbsb.